Certificate:
    Data:
        Version: 3 (0x2)
        Serial Number: 2 (0x2)
    Signature Algorithm: sha256WithRSAEncryption
        Issuer: C=CA, ST=ON, L=Mississauga, O=vpnsvr, OU=vpnsvr, CN=vpnsvr CA/name=vpnsvr/emailAddress=zxning@gmail.com
        Validity
            Not Before: Feb 24 16:53:18 2017 GMT
            Not After : Feb 22 16:53:18 2027 GMT
        Subject: C=CA, ST=ON, L=Mississauga, O=vpnsvr, OU=vpnsvr, CN=vpn1/name=vpnsvr/emailAddress=zxning@gmail.com
        Subject Public Key Info:
            Public Key Algorithm: rsaEncryption
                Public-Key: (2048 bit)
                Modulus:
                    00:cf:e7:ad:16:27:ba:a5:6b:41:50:80:c2:3d:58:
                    bb:f2:cb:92:2d:85:9a:68:84:63:50:cb:98:83:3f:
                    bd:43:39:a5:82:ed:c8:8f:0e:a7:0c:39:d9:6d:5f:
                    f5:95:0e:78:8f:e8:22:c2:0e:c6:8d:09:15:8a:ad:
                    74:e8:ff:ba:22:b4:15:06:28:71:ff:a1:f7:89:67:
                    24:8c:92:77:4e:57:07:78:b9:31:85:be:4a:10:24:
                    c5:25:36:8c:72:c0:bf:cf:2d:d7:b9:9e:5b:c6:da:
                    cc:f3:4d:1d:68:3f:49:0b:f3:8a:29:62:7c:79:14:
                    ba:29:60:a1:88:73:35:da:0a:ec:13:c1:ef:98:80:
                    5f:f9:e6:db:0f:87:ef:db:6f:c1:2f:cb:ea:bd:88:
                    6d:d2:b5:75:b0:20:10:60:e3:90:ae:90:bd:b0:0b:
                    82:ed:65:dd:e6:b0:01:f6:d7:bf:fb:d8:3d:5f:d3:
                    d8:59:01:ad:0c:8e:2c:5b:65:37:c8:0f:1c:60:15:
                    f3:a5:1b:85:b0:3a:db:6f:ef:b1:e8:8a:11:86:b0:
                    c3:59:16:0a:9c:0f:c5:43:bf:de:19:64:8f:9d:e1:
                    a9:18:7b:89:ba:6e:73:5e:b6:d1:27:d5:e4:6e:57:
                    ae:a3:de:95:2c:6b:a7:ad:41:17:62:17:50:07:57:
                    5d:87
                Exponent: 65537 (0x10001)
        X509v3 extensions:
            X509v3 Basic Constraints: 
                CA:FALSE
            Netscape Comment: 
                Easy-RSA Generated Certificate
            X509v3 Subject Key Identifier: 
                3A:51:B4:65:99:B0:C0:EB:F5:AA:74:3C:3D:90:76:C8:2E:C8:AB:66
            X509v3 Authority Key Identifier: 
                keyid:B1:2B:65:9B:17:E3:FB:CE:62:67:80:8E:EC:50:91:5C:9D:C4:91:4D
                DirName:/C=CA/ST=ON/L=Mississauga/O=vpnsvr/OU=vpnsvr/CN=vpnsvr CA/name=vpnsvr/emailAddress=zxning@gmail.com
                serial:FD:BC:9B:37:14:8C:02:DD

            X509v3 Extended Key Usage: 
                TLS Web Client Authentication
            X509v3 Key Usage: 
                Digital Signature
            X509v3 Subject Alternative Name: 
                DNS:vpn1
    Signature Algorithm: sha256WithRSAEncryption
         16:fc:80:d9:c6:ad:25:08:e4:55:c8:4c:cf:77:cd:1d:a9:02:
         1d:f4:cb:0a:0d:f5:82:b3:92:7b:9f:cf:f6:e9:b9:cb:d3:41:
         4a:03:c4:2a:e3:f4:55:44:06:cb:e1:6c:3b:5f:a2:1a:f5:8d:
         80:66:dc:20:31:ef:0d:db:2f:b9:0a:16:65:3b:75:ae:a7:95:
         d9:c6:3c:6b:d4:d7:38:2c:3f:e4:e4:b9:6a:f8:5e:8b:f0:6c:
         b6:c5:75:d0:d8:1b:db:42:bc:57:49:c7:50:ce:82:3f:db:c8:
         07:09:de:af:b5:33:e6:d1:ff:ab:6a:da:d9:e5:f5:a6:c2:86:
         2b:b2:21:87:57:8a:97:f7:5b:67:86:9e:9f:82:51:f8:d7:3f:
         73:36:c8:f2:62:b8:29:70:6d:94:47:04:b0:64:5b:0a:7a:52:
         b8:e4:0f:ae:60:09:a3:35:4d:b3:d7:6f:54:f0:d4:bd:07:1a:
         85:cc:0e:9c:28:a8:16:46:cd:30:9d:1a:bf:a2:52:6e:30:30:
         01:a4:64:b6:36:a0:21:f5:6d:9f:5e:0e:30:10:95:13:99:1c:
         00:bf:49:c7:e5:5f:f8:8f:ae:70:9e:46:74:3b:2d:ea:bb:18:
         6e:88:eb:78:c7:df:37:17:1b:c1:85:b7:f8:4b:66:85:2c:4a:
         d6:fa:6f:09
-----BEGIN CERTIFICATE-----
MIIFCjCCA/KgAwIBAgIBAjANBgkqhkiG9w0BAQsFADCBmDELMAkGA1UEBhMCQ0Ex
CzAJBgNVBAgTAk9OMRQwEgYDVQQHEwtNaXNzaXNzYXVnYTEPMA0GA1UEChMGdnBu
c3ZyMQ8wDQYDVQQLEwZ2cG5zdnIxEjAQBgNVBAMTCXZwbnN2ciBDQTEPMA0GA1UE
KRMGdnBuc3ZyMR8wHQYJKoZIhvcNAQkBFhB6eG5pbmdAZ21haWwuY29tMB4XDTE3
MDIyNDE2NTMxOFoXDTI3MDIyMjE2NTMxOFowgZMxCzAJBgNVBAYTAkNBMQswCQYD
VQQIEwJPTjEUMBIGA1UEBxMLTWlzc2lzc2F1Z2ExDzANBgNVBAoTBnZwbnN2cjEP
MA0GA1UECxMGdnBuc3ZyMQ0wCwYDVQQDEwR2cG4xMQ8wDQYDVQQpEwZ2cG5zdnIx
HzAdBgkqhkiG9w0BCQEWEHp4bmluZ0BnbWFpbC5jb20wggEiMA0GCSqGSIb3DQEB
AQUAA4IBDwAwggEKAoIBAQDP560WJ7qla0FQgMI9WLvyy5IthZpohGNQy5iDP71D
OaWC7ciPDqcMOdltX/WVDniP6CLCDsaNCRWKrXTo/7oitBUGKHH/ofeJZySMkndO
Vwd4uTGFvkoQJMUlNoxywL/PLde5nlvG2szzTR1oP0kL84opYnx5FLopYKGIczXa
CuwTwe+YgF/55tsPh+/bb8Evy+q9iG3StXWwIBBg45CukL2wC4LtZd3msAH217/7
2D1f09hZAa0MjixbZTfIDxxgFfOlG4WwOttv77HoihGGsMNZFgqcD8VDv94ZZI+d
4akYe4m6bnNettEn1eRuV66j3pUsa6etQRdiF1AHV12HAgMBAAGjggFgMIIBXDAJ
BgNVHRMEAjAAMC0GCWCGSAGG+EIBDQQgFh5FYXN5LVJTQSBHZW5lcmF0ZWQgQ2Vy
dGlmaWNhdGUwHQYDVR0OBBYEFDpRtGWZsMDr9ap0PD2QdsguyKtmMIHNBgNVHSME
gcUwgcKAFLErZZsX4/vOYmeAjuxQkVydxJFNoYGepIGbMIGYMQswCQYDVQQGEwJD
QTELMAkGA1UECBMCT04xFDASBgNVBAcTC01pc3Npc3NhdWdhMQ8wDQYDVQQKEwZ2
cG5zdnIxDzANBgNVBAsTBnZwbnN2cjESMBAGA1UEAxMJdnBuc3ZyIENBMQ8wDQYD
VQQpEwZ2cG5zdnIxHzAdBgkqhkiG9w0BCQEWEHp4bmluZ0BnbWFpbC5jb22CCQD9
vJs3FIwC3TATBgNVHSUEDDAKBggrBgEFBQcDAjALBgNVHQ8EBAMCB4AwDwYDVR0R
BAgwBoIEdnBuMTANBgkqhkiG9w0BAQsFAAOCAQEAFvyA2catJQjkVchMz3fNHakC
HfTLCg31grOSe5/P9um5y9NBSgPEKuP0VUQGy+FsO1+iGvWNgGbcIDHvDdsvuQoW
ZTt1rqeV2cY8a9TXOCw/5OS5avhei/BstsV10Ngb20K8V0nHUM6CP9vIBwner7Uz
5tH/q2ra2eX1psKGK7Ihh1eKl/dbZ4aen4JR+Nc/czbI8mK4KXBtlEcEsGRbCnpS
uOQPrmAJozVNs9dvVPDUvQcahcwOnCioFkbNMJ0av6JSbjAwAaRktjagIfVtn14O
MBCVE5kcAL9Jx+Vf+I+ucJ5GdDst6rsYbojreMffNxcbwYW3+EtmhSxK1vpvCQ==
-----END CERTIFICATE-----
