Certificate:
    Data:
        Version: 3 (0x2)
        Serial Number: 3 (0x3)
    Signature Algorithm: sha256WithRSAEncryption
        Issuer: C=CA, ST=ON, L=Mississauga, O=vpnsvr, OU=vpnsvr, CN=vpnsvr CA/name=vpnsvr/emailAddress=zxning@gmail.com
        Validity
            Not Before: Feb 24 17:23:42 2017 GMT
            Not After : Feb 22 17:23:42 2027 GMT
        Subject: C=CA, ST=ON, L=Mississauga, O=vpnsvr, OU=vpnsvr, CN=client2/name=vpnsvr/emailAddress=zxning@gmail.com
        Subject Public Key Info:
            Public Key Algorithm: rsaEncryption
                Public-Key: (2048 bit)
                Modulus:
                    00:a2:4a:de:1b:90:e8:f9:45:be:90:92:84:0e:46:
                    74:aa:bc:39:bd:69:d5:83:91:b4:ba:80:d2:6e:63:
                    1c:02:98:8e:1b:37:17:42:8d:f1:90:66:d7:51:59:
                    88:b4:97:49:b5:be:9a:81:f9:9b:a6:c4:dd:a6:2d:
                    24:a4:5e:c5:5b:b1:8b:5b:66:6a:df:52:02:42:46:
                    7b:d2:0c:a1:a3:66:14:ab:17:5d:b2:62:f9:63:69:
                    b8:aa:01:b5:f9:26:b8:f0:f1:33:d1:cf:a4:da:fd:
                    16:3b:46:0f:6d:73:71:ed:cb:aa:1c:24:66:21:b1:
                    a7:9b:4e:c7:00:c7:77:f9:58:1a:a6:77:07:22:0c:
                    dd:c0:e7:53:9f:59:3a:09:73:d2:b5:47:6a:ec:04:
                    c2:0a:be:dc:60:05:29:fe:f1:c9:e0:20:f8:06:a2:
                    ab:a5:8f:eb:85:a2:b1:a0:4e:49:6c:bd:6f:12:24:
                    50:32:4c:b5:f5:79:4d:b1:73:9e:d6:8c:16:93:98:
                    de:cb:1b:77:eb:0a:87:b7:e9:68:a8:1c:9e:1d:16:
                    a8:ab:aa:30:49:94:a2:ec:4e:30:11:0c:95:ce:80:
                    3e:52:c0:ce:f0:af:a7:a2:0c:d0:74:12:27:13:79:
                    b9:7f:4c:fc:88:b8:8a:f3:be:39:f2:76:0a:9a:c2:
                    87:2b
                Exponent: 65537 (0x10001)
        X509v3 extensions:
            X509v3 Basic Constraints: 
                CA:FALSE
            Netscape Comment: 
                Easy-RSA Generated Certificate
            X509v3 Subject Key Identifier: 
                01:64:D9:6A:13:2C:19:38:EB:F0:CB:86:A9:C8:6A:2F:CB:E0:ED:A0
            X509v3 Authority Key Identifier: 
                keyid:B1:2B:65:9B:17:E3:FB:CE:62:67:80:8E:EC:50:91:5C:9D:C4:91:4D
                DirName:/C=CA/ST=ON/L=Mississauga/O=vpnsvr/OU=vpnsvr/CN=vpnsvr CA/name=vpnsvr/emailAddress=zxning@gmail.com
                serial:FD:BC:9B:37:14:8C:02:DD

            X509v3 Extended Key Usage: 
                TLS Web Client Authentication
            X509v3 Key Usage: 
                Digital Signature
            X509v3 Subject Alternative Name: 
                DNS:client2
    Signature Algorithm: sha256WithRSAEncryption
         2b:f1:0d:25:23:06:a3:4f:65:15:3e:32:35:98:5b:9b:e1:53:
         b0:61:8a:2e:3d:54:81:bd:64:24:9a:70:4f:fd:2f:8f:b3:63:
         60:be:a1:20:0d:7d:75:7d:59:7c:69:43:84:bd:80:9c:cc:dc:
         b5:a4:95:70:e4:11:72:fc:30:68:85:c7:77:06:66:41:63:86:
         15:95:ff:8e:a5:78:e5:15:91:78:c7:74:11:93:e7:d4:a9:b9:
         3c:ca:cf:c1:25:cc:d2:2e:b5:1f:fe:3a:91:32:06:b8:d0:6a:
         41:a9:45:39:0e:0c:36:d6:0e:b8:e2:44:24:ee:6e:62:b9:3f:
         03:17:d7:0a:6a:08:96:82:84:ee:2e:1a:06:31:a1:58:63:2e:
         68:9f:ee:4a:0c:c2:58:fa:d5:3d:b6:85:e5:ed:6d:96:a5:a6:
         29:ac:28:ef:f8:15:98:70:16:7c:ac:2a:6d:09:eb:00:a4:1b:
         35:1c:52:42:7b:fb:59:11:26:6a:13:0d:9d:fe:3c:4c:58:eb:
         b5:98:61:23:d9:35:f3:ce:e1:be:89:51:3f:35:1b:3e:16:f2:
         98:78:05:bc:06:f0:5f:56:4a:d9:01:3a:a2:75:5f:58:7d:3d:
         1a:ba:bf:e4:e5:cd:d2:a4:1c:d7:cd:b6:79:57:01:33:df:7e:
         2a:18:14:b1
-----BEGIN CERTIFICATE-----
MIIFEDCCA/igAwIBAgIBAzANBgkqhkiG9w0BAQsFADCBmDELMAkGA1UEBhMCQ0Ex
CzAJBgNVBAgTAk9OMRQwEgYDVQQHEwtNaXNzaXNzYXVnYTEPMA0GA1UEChMGdnBu
c3ZyMQ8wDQYDVQQLEwZ2cG5zdnIxEjAQBgNVBAMTCXZwbnN2ciBDQTEPMA0GA1UE
KRMGdnBuc3ZyMR8wHQYJKoZIhvcNAQkBFhB6eG5pbmdAZ21haWwuY29tMB4XDTE3
MDIyNDE3MjM0MloXDTI3MDIyMjE3MjM0MlowgZYxCzAJBgNVBAYTAkNBMQswCQYD
VQQIEwJPTjEUMBIGA1UEBxMLTWlzc2lzc2F1Z2ExDzANBgNVBAoTBnZwbnN2cjEP
MA0GA1UECxMGdnBuc3ZyMRAwDgYDVQQDEwdjbGllbnQyMQ8wDQYDVQQpEwZ2cG5z
dnIxHzAdBgkqhkiG9w0BCQEWEHp4bmluZ0BnbWFpbC5jb20wggEiMA0GCSqGSIb3
DQEBAQUAA4IBDwAwggEKAoIBAQCiSt4bkOj5Rb6QkoQORnSqvDm9adWDkbS6gNJu
YxwCmI4bNxdCjfGQZtdRWYi0l0m1vpqB+ZumxN2mLSSkXsVbsYtbZmrfUgJCRnvS
DKGjZhSrF12yYvljabiqAbX5Jrjw8TPRz6Ta/RY7Rg9tc3Hty6ocJGYhsaebTscA
x3f5WBqmdwciDN3A51OfWToJc9K1R2rsBMIKvtxgBSn+8cngIPgGoqulj+uForGg
TklsvW8SJFAyTLX1eU2xc57WjBaTmN7LG3frCoe36WioHJ4dFqirqjBJlKLsTjAR
DJXOgD5SwM7wr6eiDNB0EicTebl/TPyIuIrzvjnydgqawocrAgMBAAGjggFjMIIB
XzAJBgNVHRMEAjAAMC0GCWCGSAGG+EIBDQQgFh5FYXN5LVJTQSBHZW5lcmF0ZWQg
Q2VydGlmaWNhdGUwHQYDVR0OBBYEFAFk2WoTLBk46/DLhqnIai/L4O2gMIHNBgNV
HSMEgcUwgcKAFLErZZsX4/vOYmeAjuxQkVydxJFNoYGepIGbMIGYMQswCQYDVQQG
EwJDQTELMAkGA1UECBMCT04xFDASBgNVBAcTC01pc3Npc3NhdWdhMQ8wDQYDVQQK
EwZ2cG5zdnIxDzANBgNVBAsTBnZwbnN2cjESMBAGA1UEAxMJdnBuc3ZyIENBMQ8w
DQYDVQQpEwZ2cG5zdnIxHzAdBgkqhkiG9w0BCQEWEHp4bmluZ0BnbWFpbC5jb22C
CQD9vJs3FIwC3TATBgNVHSUEDDAKBggrBgEFBQcDAjALBgNVHQ8EBAMCB4AwEgYD
VR0RBAswCYIHY2xpZW50MjANBgkqhkiG9w0BAQsFAAOCAQEAK/ENJSMGo09lFT4y
NZhbm+FTsGGKLj1Ugb1kJJpwT/0vj7NjYL6hIA19dX1ZfGlDhL2AnMzctaSVcOQR
cvwwaIXHdwZmQWOGFZX/jqV45RWReMd0EZPn1Km5PMrPwSXM0i61H/46kTIGuNBq
QalFOQ4MNtYOuOJEJO5uYrk/AxfXCmoIloKE7i4aBjGhWGMuaJ/uSgzCWPrVPbaF
5e1tlqWmKawo7/gVmHAWfKwqbQnrAKQbNRxSQnv7WREmahMNnf48TFjrtZhhI9k1
887hvolRPzUbPhbymHgFvAbwX1ZK2QE6onVfWH09Grq/5OXN0qQc1822eVcBM99+
KhgUsQ==
-----END CERTIFICATE-----
