Certificate:
    Data:
        Version: 3 (0x2)
        Serial Number: 4 (0x4)
    Signature Algorithm: sha256WithRSAEncryption
        Issuer: C=CA, ST=ON, L=Mississauga, O=vpnsvr, OU=vpnsvr, CN=vpnsvr CA/name=vpnsvr/emailAddress=zxning@gmail.com
        Validity
            Not Before: Feb 24 17:31:59 2017 GMT
            Not After : Feb 22 17:31:59 2027 GMT
        Subject: C=CA, ST=ON, L=Mississauga, O=vpnsvr, OU=vpnsvr, CN=vpn1/name=vpnsvr/emailAddress=zxning@gmail.com
        Subject Public Key Info:
            Public Key Algorithm: rsaEncryption
                Public-Key: (2048 bit)
                Modulus:
                    00:d2:98:54:6c:ce:43:c9:de:c4:86:24:85:8a:8a:
                    77:e4:f6:0e:87:f1:45:c1:f1:fa:3b:42:58:75:77:
                    0f:85:a0:71:03:af:16:92:a5:42:7f:06:f7:9e:15:
                    c3:51:dd:41:3f:c6:c6:bb:19:ca:47:9d:08:b8:da:
                    11:c3:81:3c:c8:62:25:9d:89:1a:5f:a2:c3:d1:ba:
                    b1:90:de:a3:b7:eb:31:47:88:80:67:8f:f9:7d:c7:
                    14:20:f9:2f:b1:a0:91:7d:a0:a3:31:fb:52:d3:b6:
                    00:09:b6:21:14:8b:37:6f:0b:ca:9a:d2:16:ec:46:
                    69:c7:d3:b7:4b:aa:07:3e:11:05:b8:78:55:0b:8f:
                    8b:a7:1e:e0:df:65:b1:01:33:21:1c:d7:4c:d0:05:
                    92:56:8a:1a:e0:57:3d:18:2c:10:0d:7d:e6:b6:7f:
                    88:f1:50:61:29:cb:be:85:c7:82:b8:21:fa:b3:3e:
                    e4:37:6d:ed:58:7b:b6:a3:ad:15:99:56:48:2b:d6:
                    85:5c:4b:91:aa:4b:a7:23:9a:a5:fe:d5:fb:2c:84:
                    f6:71:9e:38:f5:61:cb:17:44:84:bc:a9:d0:33:5f:
                    4d:90:85:05:da:ad:c1:64:2b:23:7e:59:94:6f:b4:
                    96:ee:d7:bc:57:75:81:d6:25:98:b9:cb:de:d3:dc:
                    75:b9
                Exponent: 65537 (0x10001)
        X509v3 extensions:
            X509v3 Basic Constraints: 
                CA:FALSE
            Netscape Comment: 
                Easy-RSA Generated Certificate
            X509v3 Subject Key Identifier: 
                06:B2:F0:F0:73:37:E7:EC:9F:F8:89:96:73:A3:C9:25:48:87:B6:4E
            X509v3 Authority Key Identifier: 
                keyid:B1:2B:65:9B:17:E3:FB:CE:62:67:80:8E:EC:50:91:5C:9D:C4:91:4D
                DirName:/C=CA/ST=ON/L=Mississauga/O=vpnsvr/OU=vpnsvr/CN=vpnsvr CA/name=vpnsvr/emailAddress=zxning@gmail.com
                serial:FD:BC:9B:37:14:8C:02:DD

            X509v3 Extended Key Usage: 
                TLS Web Client Authentication
            X509v3 Key Usage: 
                Digital Signature
            X509v3 Subject Alternative Name: 
                DNS:vpn1
    Signature Algorithm: sha256WithRSAEncryption
         3c:92:7a:73:29:86:9f:70:dd:c4:12:c7:b6:e5:cc:eb:df:fe:
         38:5a:bd:b7:9d:8b:34:c3:71:d5:e1:19:c6:4b:33:05:3a:9f:
         b7:0c:d3:83:ad:11:71:1b:44:28:1d:65:c3:5f:0c:01:06:1d:
         ed:13:f7:10:72:1c:63:d7:a6:de:32:5d:97:1c:d7:95:2f:54:
         80:56:38:af:40:49:ea:c0:30:7b:aa:94:12:ea:bf:d4:be:10:
         89:a9:3b:57:86:b4:20:d4:d2:c2:ce:fe:de:cf:d0:2c:ba:3d:
         f9:44:c8:d6:8d:8e:19:47:36:f7:57:bb:93:65:3a:0b:2c:f7:
         22:e0:c5:63:0f:7c:7d:b2:e5:10:bd:11:e6:37:2e:c2:dc:46:
         e1:12:2e:8b:03:ff:64:c6:03:c2:9d:0d:2e:56:f2:42:15:06:
         46:8a:b4:0f:4a:01:3e:44:d9:81:ad:5e:2f:50:c3:4e:28:f8:
         77:5a:00:7d:19:15:7e:74:7d:6b:a4:0e:a0:f1:f0:6a:24:10:
         a4:48:19:95:e9:ec:23:5d:f8:cd:62:d8:54:8d:94:e4:a9:f1:
         09:5c:b4:0c:e5:70:1c:c2:23:43:8c:25:14:c7:de:e6:c9:e9:
         83:75:e8:16:d2:bd:8d:65:f6:9d:50:3c:9e:06:0e:9b:f0:28:
         1e:07:05:e7
-----BEGIN CERTIFICATE-----
MIIFCjCCA/KgAwIBAgIBBDANBgkqhkiG9w0BAQsFADCBmDELMAkGA1UEBhMCQ0Ex
CzAJBgNVBAgTAk9OMRQwEgYDVQQHEwtNaXNzaXNzYXVnYTEPMA0GA1UEChMGdnBu
c3ZyMQ8wDQYDVQQLEwZ2cG5zdnIxEjAQBgNVBAMTCXZwbnN2ciBDQTEPMA0GA1UE
KRMGdnBuc3ZyMR8wHQYJKoZIhvcNAQkBFhB6eG5pbmdAZ21haWwuY29tMB4XDTE3
MDIyNDE3MzE1OVoXDTI3MDIyMjE3MzE1OVowgZMxCzAJBgNVBAYTAkNBMQswCQYD
VQQIEwJPTjEUMBIGA1UEBxMLTWlzc2lzc2F1Z2ExDzANBgNVBAoTBnZwbnN2cjEP
MA0GA1UECxMGdnBuc3ZyMQ0wCwYDVQQDEwR2cG4xMQ8wDQYDVQQpEwZ2cG5zdnIx
HzAdBgkqhkiG9w0BCQEWEHp4bmluZ0BnbWFpbC5jb20wggEiMA0GCSqGSIb3DQEB
AQUAA4IBDwAwggEKAoIBAQDSmFRszkPJ3sSGJIWKinfk9g6H8UXB8fo7Qlh1dw+F
oHEDrxaSpUJ/BveeFcNR3UE/xsa7GcpHnQi42hHDgTzIYiWdiRpfosPRurGQ3qO3
6zFHiIBnj/l9xxQg+S+xoJF9oKMx+1LTtgAJtiEUizdvC8qa0hbsRmnH07dLqgc+
EQW4eFULj4unHuDfZbEBMyEc10zQBZJWihrgVz0YLBANfea2f4jxUGEpy76Fx4K4
IfqzPuQ3be1Ye7ajrRWZVkgr1oVcS5GqS6cjmqX+1fsshPZxnjj1YcsXRIS8qdAz
X02QhQXarcFkKyN+WZRvtJbu17xXdYHWJZi5y97T3HW5AgMBAAGjggFgMIIBXDAJ
BgNVHRMEAjAAMC0GCWCGSAGG+EIBDQQgFh5FYXN5LVJTQSBHZW5lcmF0ZWQgQ2Vy
dGlmaWNhdGUwHQYDVR0OBBYEFAay8PBzN+fsn/iJlnOjySVIh7ZOMIHNBgNVHSME
gcUwgcKAFLErZZsX4/vOYmeAjuxQkVydxJFNoYGepIGbMIGYMQswCQYDVQQGEwJD
QTELMAkGA1UECBMCT04xFDASBgNVBAcTC01pc3Npc3NhdWdhMQ8wDQYDVQQKEwZ2
cG5zdnIxDzANBgNVBAsTBnZwbnN2cjESMBAGA1UEAxMJdnBuc3ZyIENBMQ8wDQYD
VQQpEwZ2cG5zdnIxHzAdBgkqhkiG9w0BCQEWEHp4bmluZ0BnbWFpbC5jb22CCQD9
vJs3FIwC3TATBgNVHSUEDDAKBggrBgEFBQcDAjALBgNVHQ8EBAMCB4AwDwYDVR0R
BAgwBoIEdnBuMTANBgkqhkiG9w0BAQsFAAOCAQEAPJJ6cymGn3DdxBLHtuXM69/+
OFq9t52LNMNx1eEZxkszBTqftwzTg60RcRtEKB1lw18MAQYd7RP3EHIcY9em3jJd
lxzXlS9UgFY4r0BJ6sAwe6qUEuq/1L4Qiak7V4a0INTSws7+3s/QLLo9+UTI1o2O
GUc291e7k2U6Cyz3IuDFYw98fbLlEL0R5jcuwtxG4RIuiwP/ZMYDwp0NLlbyQhUG
Roq0D0oBPkTZga1eL1DDTij4d1oAfRkVfnR9a6QOoPHwaiQQpEgZlensI134zWLY
VI2U5KnxCVy0DOVwHMIjQ4wlFMfe5snpg3XoFtK9jWX2nVA8ngYOm/AoHgcF5w==
-----END CERTIFICATE-----
