Certificate:
    Data:
        Version: 3 (0x2)
        Serial Number: 5 (0x5)
    Signature Algorithm: sha256WithRSAEncryption
        Issuer: C=CA, ST=ON, L=Mississauga, O=vpnsvr, OU=vpnsvr, CN=vpnsvr CA/name=vpnsvr/emailAddress=zxning@gmail.com
        Validity
            Not Before: Feb 24 17:34:15 2017 GMT
            Not After : Feb 22 17:34:15 2027 GMT
        Subject: C=CA, ST=ON, L=Mississauga, O=vpnsvr, OU=vpnsvr, CN=vpn1/name=vpnsvr/emailAddress=zxning@gmail.com
        Subject Public Key Info:
            Public Key Algorithm: rsaEncryption
                Public-Key: (2048 bit)
                Modulus:
                    00:cb:7f:39:c3:af:10:78:8f:46:0b:9f:bc:61:a9:
                    1a:6f:b0:bc:85:28:98:ea:d1:39:4d:3e:2d:19:69:
                    d6:5d:f0:ab:c4:be:d0:41:38:9b:05:08:3c:3f:c2:
                    29:cb:f8:69:74:6c:3a:26:78:74:fa:1f:5b:0e:cf:
                    3a:93:06:29:24:1d:a0:05:a9:d1:f5:37:33:d6:4b:
                    9e:ce:81:35:e5:8b:97:db:41:ea:a3:04:e3:cc:c9:
                    57:b4:b9:ad:92:c7:74:2b:97:81:20:6c:61:b8:2d:
                    9e:06:e8:e0:32:bc:f8:b9:bf:cc:56:ad:a5:9c:69:
                    00:bb:2f:dd:68:3b:48:b6:10:2e:ca:fe:b2:2a:3f:
                    69:86:e8:de:f7:f7:a2:68:e2:50:4f:d3:66:3d:dc:
                    ec:43:3e:e1:2c:20:b8:5d:0e:e6:d1:f5:ed:a5:b3:
                    87:91:e4:24:36:f4:57:73:9a:03:11:72:f1:49:b2:
                    79:c5:12:70:f3:09:ea:7c:d8:52:81:38:17:20:d8:
                    96:e6:00:2c:02:2d:e5:fb:ae:3d:5b:db:4e:92:19:
                    be:0c:ce:cd:3b:58:32:d7:b7:5e:b5:e7:83:03:50:
                    4b:12:36:04:96:30:bf:e2:72:46:1b:fa:98:7a:72:
                    d6:ea:4e:2a:88:26:6e:ab:07:0e:ea:4e:47:ac:1f:
                    c9:df
                Exponent: 65537 (0x10001)
        X509v3 extensions:
            X509v3 Basic Constraints: 
                CA:FALSE
            Netscape Comment: 
                Easy-RSA Generated Certificate
            X509v3 Subject Key Identifier: 
                F0:2E:A6:A1:EE:2E:8D:B3:EB:81:64:57:AA:A3:72:C5:F7:81:88:76
            X509v3 Authority Key Identifier: 
                keyid:B1:2B:65:9B:17:E3:FB:CE:62:67:80:8E:EC:50:91:5C:9D:C4:91:4D
                DirName:/C=CA/ST=ON/L=Mississauga/O=vpnsvr/OU=vpnsvr/CN=vpnsvr CA/name=vpnsvr/emailAddress=zxning@gmail.com
                serial:FD:BC:9B:37:14:8C:02:DD

            X509v3 Extended Key Usage: 
                TLS Web Client Authentication
            X509v3 Key Usage: 
                Digital Signature
            X509v3 Subject Alternative Name: 
                DNS:vpn1
    Signature Algorithm: sha256WithRSAEncryption
         90:7c:b5:68:9d:40:a7:5e:3d:c9:10:62:f3:be:32:25:eb:14:
         fc:36:22:6d:6b:6f:91:60:48:94:cd:5a:5d:8d:d4:fe:32:2a:
         fc:25:02:a6:3c:1e:d4:d7:b8:a7:af:25:3a:48:89:d7:3f:06:
         9c:2b:e2:38:28:7f:df:6a:61:ef:bc:16:8d:d7:0b:e6:1d:b9:
         3a:23:10:2a:32:cc:b5:4b:e4:82:51:7c:aa:e8:73:51:76:18:
         05:8e:32:01:17:b7:af:55:ca:a9:24:f5:e3:ae:23:35:71:6a:
         94:88:01:da:d9:24:57:1d:8a:9f:20:7f:d5:15:fe:ea:ea:79:
         43:ee:70:67:45:c9:8f:46:14:0b:4a:a8:73:2a:ea:1a:77:ce:
         70:c4:e0:2d:45:a0:b8:20:64:95:43:3a:3d:44:a1:94:2d:c9:
         41:aa:f8:54:01:5f:cc:07:15:0e:0e:6d:f6:f5:9e:6e:69:a3:
         84:f4:dc:f2:f4:52:e0:c6:92:33:bd:ac:cd:a6:75:88:47:db:
         65:aa:fe:7e:1f:c1:40:82:7c:00:cb:9e:2b:43:14:37:5d:f0:
         72:c9:28:0d:1a:45:46:a8:29:49:75:e7:a7:9c:da:8b:ee:ac:
         85:5b:3f:0e:ea:1e:a1:0c:2e:ee:51:0f:11:12:87:76:5d:41:
         9c:e5:da:e7
-----BEGIN CERTIFICATE-----
MIIFCjCCA/KgAwIBAgIBBTANBgkqhkiG9w0BAQsFADCBmDELMAkGA1UEBhMCQ0Ex
CzAJBgNVBAgTAk9OMRQwEgYDVQQHEwtNaXNzaXNzYXVnYTEPMA0GA1UEChMGdnBu
c3ZyMQ8wDQYDVQQLEwZ2cG5zdnIxEjAQBgNVBAMTCXZwbnN2ciBDQTEPMA0GA1UE
KRMGdnBuc3ZyMR8wHQYJKoZIhvcNAQkBFhB6eG5pbmdAZ21haWwuY29tMB4XDTE3
MDIyNDE3MzQxNVoXDTI3MDIyMjE3MzQxNVowgZMxCzAJBgNVBAYTAkNBMQswCQYD
VQQIEwJPTjEUMBIGA1UEBxMLTWlzc2lzc2F1Z2ExDzANBgNVBAoTBnZwbnN2cjEP
MA0GA1UECxMGdnBuc3ZyMQ0wCwYDVQQDEwR2cG4xMQ8wDQYDVQQpEwZ2cG5zdnIx
HzAdBgkqhkiG9w0BCQEWEHp4bmluZ0BnbWFpbC5jb20wggEiMA0GCSqGSIb3DQEB
AQUAA4IBDwAwggEKAoIBAQDLfznDrxB4j0YLn7xhqRpvsLyFKJjq0TlNPi0ZadZd
8KvEvtBBOJsFCDw/winL+Gl0bDomeHT6H1sOzzqTBikkHaAFqdH1NzPWS57OgTXl
i5fbQeqjBOPMyVe0ua2Sx3Qrl4EgbGG4LZ4G6OAyvPi5v8xWraWcaQC7L91oO0i2
EC7K/rIqP2mG6N7396Jo4lBP02Y93OxDPuEsILhdDubR9e2ls4eR5CQ29FdzmgMR
cvFJsnnFEnDzCep82FKBOBcg2JbmACwCLeX7rj1b206SGb4Mzs07WDLXt16154MD
UEsSNgSWML/ickYb+ph6ctbqTiqIJm6rBw7qTkesH8nfAgMBAAGjggFgMIIBXDAJ
BgNVHRMEAjAAMC0GCWCGSAGG+EIBDQQgFh5FYXN5LVJTQSBHZW5lcmF0ZWQgQ2Vy
dGlmaWNhdGUwHQYDVR0OBBYEFPAupqHuLo2z64FkV6qjcsX3gYh2MIHNBgNVHSME
gcUwgcKAFLErZZsX4/vOYmeAjuxQkVydxJFNoYGepIGbMIGYMQswCQYDVQQGEwJD
QTELMAkGA1UECBMCT04xFDASBgNVBAcTC01pc3Npc3NhdWdhMQ8wDQYDVQQKEwZ2
cG5zdnIxDzANBgNVBAsTBnZwbnN2cjESMBAGA1UEAxMJdnBuc3ZyIENBMQ8wDQYD
VQQpEwZ2cG5zdnIxHzAdBgkqhkiG9w0BCQEWEHp4bmluZ0BnbWFpbC5jb22CCQD9
vJs3FIwC3TATBgNVHSUEDDAKBggrBgEFBQcDAjALBgNVHQ8EBAMCB4AwDwYDVR0R
BAgwBoIEdnBuMTANBgkqhkiG9w0BAQsFAAOCAQEAkHy1aJ1Ap149yRBi874yJesU
/DYibWtvkWBIlM1aXY3U/jIq/CUCpjwe1Ne4p68lOkiJ1z8GnCviOCh/32ph77wW
jdcL5h25OiMQKjLMtUvkglF8quhzUXYYBY4yARe3r1XKqST1464jNXFqlIgB2tkk
Vx2KnyB/1RX+6up5Q+5wZ0XJj0YUC0qocyrqGnfOcMTgLUWguCBklUM6PUShlC3J
Qar4VAFfzAcVDg5t9vWebmmjhPTc8vRS4MaSM72szaZ1iEfbZar+fh/BQIJ8AMue
K0MUN13wcskoDRpFRqgpSXXnp5zai+6shVs/DuoeoQwu7lEPERKHdl1BnOXa5w==
-----END CERTIFICATE-----
