Certificate:
    Data:
        Version: 3 (0x2)
        Serial Number: 6 (0x6)
    Signature Algorithm: sha256WithRSAEncryption
        Issuer: C=CA, ST=ON, L=Mississauga, O=vpnsvr, OU=vpnsvr, CN=vpnsvr CA/name=vpnsvr/emailAddress=zxning@gmail.com
        Validity
            Not Before: Feb 24 17:44:01 2017 GMT
            Not After : Feb 22 17:44:01 2027 GMT
        Subject: C=CA, ST=ON, L=Mississauga, O=vpnsvr, OU=vpnsvr, CN=vpn2/name=vpnsvr/emailAddress=zxning@gmail.com
        Subject Public Key Info:
            Public Key Algorithm: rsaEncryption
                Public-Key: (2048 bit)
                Modulus:
                    00:dc:6b:5f:6b:b2:2b:28:66:4e:ec:bd:01:26:a4:
                    f9:20:36:89:fa:05:ef:b4:a9:b8:91:1c:cd:b8:51:
                    0d:cc:16:2d:a5:7f:44:d1:4d:d6:e1:19:65:e6:d5:
                    38:34:3c:35:9c:45:83:13:5e:02:e0:10:05:92:7c:
                    27:3e:99:81:d4:bd:e4:af:1d:af:ef:55:2f:87:94:
                    3e:44:45:cb:ac:15:25:5b:63:cf:e9:a4:a1:79:5d:
                    01:22:ff:ca:0f:92:9d:fc:60:76:fd:93:e5:b8:e6:
                    41:a9:10:5a:7b:cb:47:58:f8:99:dd:0c:95:ce:76:
                    57:6e:b1:f6:91:3a:f8:ea:de:2c:c7:8d:8a:bd:c7:
                    3e:4a:84:af:4c:d8:bd:44:3d:f4:f7:4a:ab:df:cb:
                    4e:1f:6c:b3:f2:37:7e:1d:5f:50:fe:22:83:75:aa:
                    e0:9d:3c:39:31:6f:0f:b2:7b:75:8a:69:91:52:90:
                    7b:d1:36:22:84:6d:6b:52:32:80:16:3b:18:b9:85:
                    99:79:46:d1:95:cd:1b:e0:96:2c:96:c0:56:ee:29:
                    6b:bd:87:b7:d9:4f:69:85:da:df:44:e5:26:99:ba:
                    99:3a:cb:17:5f:cf:53:25:c6:1b:8f:2a:c5:1f:fe:
                    e6:58:f8:e7:93:98:64:51:9e:62:78:38:ed:95:54:
                    a6:7f
                Exponent: 65537 (0x10001)
        X509v3 extensions:
            X509v3 Basic Constraints: 
                CA:FALSE
            Netscape Comment: 
                Easy-RSA Generated Certificate
            X509v3 Subject Key Identifier: 
                03:0B:A2:BE:EB:CD:73:0A:F4:EB:74:16:57:E0:54:27:6C:62:55:5C
            X509v3 Authority Key Identifier: 
                keyid:B1:2B:65:9B:17:E3:FB:CE:62:67:80:8E:EC:50:91:5C:9D:C4:91:4D
                DirName:/C=CA/ST=ON/L=Mississauga/O=vpnsvr/OU=vpnsvr/CN=vpnsvr CA/name=vpnsvr/emailAddress=zxning@gmail.com
                serial:FD:BC:9B:37:14:8C:02:DD

            X509v3 Extended Key Usage: 
                TLS Web Client Authentication
            X509v3 Key Usage: 
                Digital Signature
            X509v3 Subject Alternative Name: 
                DNS:vpn2
    Signature Algorithm: sha256WithRSAEncryption
         2e:1c:d3:cd:db:3a:63:e4:c8:fe:cc:7e:45:69:aa:86:52:78:
         78:aa:87:46:a2:da:c3:fe:8a:34:d3:66:d5:54:c4:d3:05:6c:
         9a:8e:1e:c2:70:b7:88:cf:a5:f1:3c:47:fc:e6:cf:20:fd:d8:
         d9:b4:b1:b2:0a:3c:1c:0d:79:bf:f2:2b:1f:69:ee:0b:60:91:
         9a:7e:86:81:b2:40:37:bd:ba:f7:a3:3c:57:80:6f:86:3e:d2:
         4e:5d:60:f8:ad:9d:4b:bf:dc:05:88:6f:29:59:42:a4:dd:41:
         60:7f:89:1a:90:5d:ce:b7:73:06:97:d7:32:70:a3:07:97:d9:
         d4:b0:92:3a:37:97:95:12:c7:65:f1:07:21:a7:f8:7f:49:f1:
         6d:37:39:95:91:1d:74:22:e5:9b:b6:c6:b7:07:b9:01:ed:06:
         2c:d6:3a:bc:0a:db:5b:40:f5:bb:87:77:8b:66:37:86:ca:35:
         51:63:b1:67:cd:f9:6d:43:ff:bc:00:2f:0c:88:39:bc:0e:6b:
         9c:99:ac:d9:2e:b5:d8:9b:b6:24:29:e9:ce:2d:7c:47:5b:57:
         79:8b:de:27:6a:5c:21:27:fe:9f:94:3b:aa:7e:f6:c4:f1:a9:
         e2:ae:fb:08:c1:bb:a7:60:d7:2d:9d:96:5d:2c:32:06:ef:84:
         f8:0a:0e:51
-----BEGIN CERTIFICATE-----
MIIFCjCCA/KgAwIBAgIBBjANBgkqhkiG9w0BAQsFADCBmDELMAkGA1UEBhMCQ0Ex
CzAJBgNVBAgTAk9OMRQwEgYDVQQHEwtNaXNzaXNzYXVnYTEPMA0GA1UEChMGdnBu
c3ZyMQ8wDQYDVQQLEwZ2cG5zdnIxEjAQBgNVBAMTCXZwbnN2ciBDQTEPMA0GA1UE
KRMGdnBuc3ZyMR8wHQYJKoZIhvcNAQkBFhB6eG5pbmdAZ21haWwuY29tMB4XDTE3
MDIyNDE3NDQwMVoXDTI3MDIyMjE3NDQwMVowgZMxCzAJBgNVBAYTAkNBMQswCQYD
VQQIEwJPTjEUMBIGA1UEBxMLTWlzc2lzc2F1Z2ExDzANBgNVBAoTBnZwbnN2cjEP
MA0GA1UECxMGdnBuc3ZyMQ0wCwYDVQQDEwR2cG4yMQ8wDQYDVQQpEwZ2cG5zdnIx
HzAdBgkqhkiG9w0BCQEWEHp4bmluZ0BnbWFpbC5jb20wggEiMA0GCSqGSIb3DQEB
AQUAA4IBDwAwggEKAoIBAQDca19rsisoZk7svQEmpPkgNon6Be+0qbiRHM24UQ3M
Fi2lf0TRTdbhGWXm1Tg0PDWcRYMTXgLgEAWSfCc+mYHUveSvHa/vVS+HlD5ERcus
FSVbY8/ppKF5XQEi/8oPkp38YHb9k+W45kGpEFp7y0dY+JndDJXOdldusfaROvjq
3izHjYq9xz5KhK9M2L1EPfT3Sqvfy04fbLPyN34dX1D+IoN1quCdPDkxbw+ye3WK
aZFSkHvRNiKEbWtSMoAWOxi5hZl5RtGVzRvgliyWwFbuKWu9h7fZT2mF2t9E5SaZ
upk6yxdfz1MlxhuPKsUf/uZY+OeTmGRRnmJ4OO2VVKZ/AgMBAAGjggFgMIIBXDAJ
BgNVHRMEAjAAMC0GCWCGSAGG+EIBDQQgFh5FYXN5LVJTQSBHZW5lcmF0ZWQgQ2Vy
dGlmaWNhdGUwHQYDVR0OBBYEFAMLor7rzXMK9Ot0FlfgVCdsYlVcMIHNBgNVHSME
gcUwgcKAFLErZZsX4/vOYmeAjuxQkVydxJFNoYGepIGbMIGYMQswCQYDVQQGEwJD
QTELMAkGA1UECBMCT04xFDASBgNVBAcTC01pc3Npc3NhdWdhMQ8wDQYDVQQKEwZ2
cG5zdnIxDzANBgNVBAsTBnZwbnN2cjESMBAGA1UEAxMJdnBuc3ZyIENBMQ8wDQYD
VQQpEwZ2cG5zdnIxHzAdBgkqhkiG9w0BCQEWEHp4bmluZ0BnbWFpbC5jb22CCQD9
vJs3FIwC3TATBgNVHSUEDDAKBggrBgEFBQcDAjALBgNVHQ8EBAMCB4AwDwYDVR0R
BAgwBoIEdnBuMjANBgkqhkiG9w0BAQsFAAOCAQEALhzTzds6Y+TI/sx+RWmqhlJ4
eKqHRqLaw/6KNNNm1VTE0wVsmo4ewnC3iM+l8TxH/ObPIP3Y2bSxsgo8HA15v/Ir
H2nuC2CRmn6GgbJAN72696M8V4Bvhj7STl1g+K2dS7/cBYhvKVlCpN1BYH+JGpBd
zrdzBpfXMnCjB5fZ1LCSOjeXlRLHZfEHIaf4f0nxbTc5lZEddCLlm7bGtwe5Ae0G
LNY6vArbW0D1u4d3i2Y3hso1UWOxZ835bUP/vAAvDIg5vA5rnJms2S612Ju2JCnp
zi18R1tXeYveJ2pcISf+n5Q7qn72xPGp4q77CMG7p2DXLZ2WXSwyBu+E+AoOUQ==
-----END CERTIFICATE-----
