Certificate:
    Data:
        Version: 3 (0x2)
        Serial Number: 7 (0x7)
    Signature Algorithm: sha256WithRSAEncryption
        Issuer: C=CA, ST=ON, L=Mississauga, O=vpnsvr, OU=vpnsvr, CN=vpnsvr CA/name=vpnsvr/emailAddress=zxning@gmail.com
        Validity
            Not Before: Feb 24 17:45:31 2017 GMT
            Not After : Feb 22 17:45:31 2027 GMT
        Subject: C=CA, ST=ON, L=Mississauga, O=vpnsvr, OU=vpnsvr, CN=vpn3/name=vpnsvr/emailAddress=zxning@gmail.com
        Subject Public Key Info:
            Public Key Algorithm: rsaEncryption
                Public-Key: (2048 bit)
                Modulus:
                    00:e6:25:c7:5b:31:bb:58:bb:fb:5a:0b:1a:89:7d:
                    89:14:08:7c:49:fb:7f:5c:68:c6:31:f2:5b:3b:1f:
                    5b:7f:29:37:17:e4:38:28:de:08:9e:ea:ee:4e:eb:
                    00:d6:5f:70:63:62:b5:af:cd:ce:9e:86:4f:a9:e5:
                    c7:1a:6c:ad:f3:ab:4c:77:93:b8:d1:e3:44:b4:ef:
                    af:7e:4a:60:42:60:a1:28:37:93:ea:9f:e9:3a:3f:
                    a4:3b:92:7f:52:23:57:4f:3a:b1:03:70:19:02:07:
                    b9:eb:cf:65:d6:10:3e:83:f3:e7:32:b3:0b:ff:d0:
                    58:2f:40:36:d7:34:27:46:b1:c8:a4:82:be:43:5d:
                    b4:51:f2:f9:97:88:b1:c4:67:b4:f8:0f:98:84:13:
                    4a:a5:bb:c5:dd:e8:62:db:39:b6:15:b4:0f:ae:8e:
                    81:9e:95:36:9d:e5:50:03:01:5d:a0:90:d9:d6:c2:
                    55:14:b8:00:3b:46:c2:14:e2:8a:c7:5a:e2:9d:14:
                    db:02:e2:8a:bb:7e:a5:b6:e8:a2:59:03:59:8e:f0:
                    f3:90:38:aa:9d:9e:79:0d:2f:57:e6:61:86:f5:0f:
                    3f:0d:8c:68:86:b4:71:7e:8a:3c:b5:bd:1a:c5:71:
                    18:6c:75:bd:11:34:aa:cf:54:90:73:55:6d:a1:a0:
                    22:8d
                Exponent: 65537 (0x10001)
        X509v3 extensions:
            X509v3 Basic Constraints: 
                CA:FALSE
            Netscape Comment: 
                Easy-RSA Generated Certificate
            X509v3 Subject Key Identifier: 
                C6:4F:3F:C6:02:33:E6:F8:7A:B1:EC:0A:9A:09:1C:33:BE:23:2A:A7
            X509v3 Authority Key Identifier: 
                keyid:B1:2B:65:9B:17:E3:FB:CE:62:67:80:8E:EC:50:91:5C:9D:C4:91:4D
                DirName:/C=CA/ST=ON/L=Mississauga/O=vpnsvr/OU=vpnsvr/CN=vpnsvr CA/name=vpnsvr/emailAddress=zxning@gmail.com
                serial:FD:BC:9B:37:14:8C:02:DD

            X509v3 Extended Key Usage: 
                TLS Web Client Authentication
            X509v3 Key Usage: 
                Digital Signature
            X509v3 Subject Alternative Name: 
                DNS:vpn3
    Signature Algorithm: sha256WithRSAEncryption
         6f:cf:2b:c3:3d:e5:51:81:75:d9:80:8c:87:af:43:b2:9d:04:
         a7:a7:41:27:ad:08:18:e9:f2:14:99:94:af:ee:46:00:aa:8c:
         8e:8f:cc:c7:39:53:42:1e:cb:98:c1:87:f2:49:e1:26:0f:ad:
         ba:11:b0:77:fe:fc:d3:2f:a7:b5:ad:5f:78:62:50:5e:60:30:
         ba:cd:ab:a5:3b:d0:78:57:88:2c:06:11:51:76:f9:47:d8:5f:
         bc:4e:3f:0d:02:8a:f4:b8:31:13:8e:16:a7:80:57:01:30:51:
         75:a8:ff:89:51:4f:55:22:3a:de:df:75:d4:24:e1:24:32:a7:
         3b:d7:ed:ce:86:bf:b5:92:fe:d5:88:c7:bf:e2:0c:49:f2:a0:
         3f:7b:ef:fe:4b:1a:c2:3f:c9:38:0e:a3:07:2e:6e:56:9c:90:
         df:58:35:0a:ef:9b:10:8a:4b:b1:e6:b6:61:a1:38:c2:a3:0c:
         0f:f2:9c:f0:49:ef:0d:65:e1:07:b9:a7:60:7a:71:9e:01:93:
         60:1f:88:c9:98:0c:7c:3d:95:b4:b7:2d:9b:d5:18:31:24:30:
         bf:5e:e3:f2:78:04:22:2c:a0:44:b9:21:36:92:0d:cf:c3:de:
         12:40:d0:6c:28:80:f7:f8:b2:37:e1:00:ad:a3:db:aa:18:e0:
         ab:10:5f:0a
-----BEGIN CERTIFICATE-----
MIIFCjCCA/KgAwIBAgIBBzANBgkqhkiG9w0BAQsFADCBmDELMAkGA1UEBhMCQ0Ex
CzAJBgNVBAgTAk9OMRQwEgYDVQQHEwtNaXNzaXNzYXVnYTEPMA0GA1UEChMGdnBu
c3ZyMQ8wDQYDVQQLEwZ2cG5zdnIxEjAQBgNVBAMTCXZwbnN2ciBDQTEPMA0GA1UE
KRMGdnBuc3ZyMR8wHQYJKoZIhvcNAQkBFhB6eG5pbmdAZ21haWwuY29tMB4XDTE3
MDIyNDE3NDUzMVoXDTI3MDIyMjE3NDUzMVowgZMxCzAJBgNVBAYTAkNBMQswCQYD
VQQIEwJPTjEUMBIGA1UEBxMLTWlzc2lzc2F1Z2ExDzANBgNVBAoTBnZwbnN2cjEP
MA0GA1UECxMGdnBuc3ZyMQ0wCwYDVQQDEwR2cG4zMQ8wDQYDVQQpEwZ2cG5zdnIx
HzAdBgkqhkiG9w0BCQEWEHp4bmluZ0BnbWFpbC5jb20wggEiMA0GCSqGSIb3DQEB
AQUAA4IBDwAwggEKAoIBAQDmJcdbMbtYu/taCxqJfYkUCHxJ+39caMYx8ls7H1t/
KTcX5Dgo3gie6u5O6wDWX3BjYrWvzc6ehk+p5ccabK3zq0x3k7jR40S0769+SmBC
YKEoN5Pqn+k6P6Q7kn9SI1dPOrEDcBkCB7nrz2XWED6D8+cyswv/0FgvQDbXNCdG
scikgr5DXbRR8vmXiLHEZ7T4D5iEE0qlu8Xd6GLbObYVtA+ujoGelTad5VADAV2g
kNnWwlUUuAA7RsIU4orHWuKdFNsC4oq7fqW26KJZA1mO8POQOKqdnnkNL1fmYYb1
Dz8NjGiGtHF+ijy1vRrFcRhsdb0RNKrPVJBzVW2hoCKNAgMBAAGjggFgMIIBXDAJ
BgNVHRMEAjAAMC0GCWCGSAGG+EIBDQQgFh5FYXN5LVJTQSBHZW5lcmF0ZWQgQ2Vy
dGlmaWNhdGUwHQYDVR0OBBYEFMZPP8YCM+b4erHsCpoJHDO+IyqnMIHNBgNVHSME
gcUwgcKAFLErZZsX4/vOYmeAjuxQkVydxJFNoYGepIGbMIGYMQswCQYDVQQGEwJD
QTELMAkGA1UECBMCT04xFDASBgNVBAcTC01pc3Npc3NhdWdhMQ8wDQYDVQQKEwZ2
cG5zdnIxDzANBgNVBAsTBnZwbnN2cjESMBAGA1UEAxMJdnBuc3ZyIENBMQ8wDQYD
VQQpEwZ2cG5zdnIxHzAdBgkqhkiG9w0BCQEWEHp4bmluZ0BnbWFpbC5jb22CCQD9
vJs3FIwC3TATBgNVHSUEDDAKBggrBgEFBQcDAjALBgNVHQ8EBAMCB4AwDwYDVR0R
BAgwBoIEdnBuMzANBgkqhkiG9w0BAQsFAAOCAQEAb88rwz3lUYF12YCMh69Dsp0E
p6dBJ60IGOnyFJmUr+5GAKqMjo/MxzlTQh7LmMGH8knhJg+tuhGwd/780y+nta1f
eGJQXmAwus2rpTvQeFeILAYRUXb5R9hfvE4/DQKK9LgxE44Wp4BXATBRdaj/iVFP
VSI63t911CThJDKnO9ftzoa/tZL+1YjHv+IMSfKgP3vv/ksawj/JOA6jBy5uVpyQ
31g1Cu+bEIpLsea2YaE4wqMMD/Kc8EnvDWXhB7mnYHpxngGTYB+IyZgMfD2VtLct
m9UYMSQwv17j8ngEIiygRLkhNpINz8PeEkDQbCiA9/iyN+EAraPbqhjgqxBfCg==
-----END CERTIFICATE-----
