Certificate:
    Data:
        Version: 3 (0x2)
        Serial Number: 8 (0x8)
    Signature Algorithm: sha256WithRSAEncryption
        Issuer: C=CA, ST=ON, L=Mississauga, O=vpnsvr, OU=vpnsvr, CN=vpnsvr CA/name=vpnsvr/emailAddress=zxning@gmail.com
        Validity
            Not Before: Feb 24 17:46:53 2017 GMT
            Not After : Feb 22 17:46:53 2027 GMT
        Subject: C=CA, ST=ON, L=Mississauga, O=vpnsvr, OU=vpnsvr, CN=vpn1/name=vpnsvr/emailAddress=zxning@gmail.com
        Subject Public Key Info:
            Public Key Algorithm: rsaEncryption
                Public-Key: (2048 bit)
                Modulus:
                    00:cd:62:b0:01:03:64:20:f8:69:5f:45:28:e7:18:
                    d9:bc:da:8b:af:5a:f8:26:f1:e0:a3:0d:4e:f2:b1:
                    49:f8:8a:7c:9d:9d:af:a8:37:84:d8:ec:46:35:c9:
                    82:de:bc:21:2a:28:de:aa:86:cb:57:88:42:e6:ee:
                    a3:6f:55:05:be:79:14:22:92:6b:26:aa:7b:6d:75:
                    6b:b9:d5:a5:ef:fc:0c:97:25:03:13:f9:d0:c0:c0:
                    db:d9:52:0b:db:24:aa:5c:c9:ad:dd:d5:ef:a8:45:
                    56:75:f7:28:e9:a1:02:07:0b:6d:d5:20:16:72:54:
                    20:1c:fa:1c:54:59:25:a9:c5:77:e7:6d:06:94:36:
                    97:3d:22:d6:26:49:cb:30:8c:fd:7a:b2:3f:d3:7b:
                    75:65:f9:7f:75:bc:8f:49:0f:cf:b0:fd:79:b5:a3:
                    63:00:ce:5b:70:ea:aa:3f:69:2e:a8:bf:e2:e4:f4:
                    e1:eb:b5:f1:35:ee:19:73:ee:92:6d:de:cc:70:0a:
                    be:dd:a4:1c:d9:99:75:60:cc:25:ea:b6:44:f9:e3:
                    3a:37:2d:77:b8:6e:56:e1:6a:21:66:c2:4f:ec:d4:
                    1d:c1:e9:d0:49:e3:6f:f5:d6:1c:d1:2f:74:98:0e:
                    5a:63:8f:23:d2:67:29:8e:54:96:3d:c4:b6:3b:a5:
                    37:a7
                Exponent: 65537 (0x10001)
        X509v3 extensions:
            X509v3 Basic Constraints: 
                CA:FALSE
            Netscape Comment: 
                Easy-RSA Generated Certificate
            X509v3 Subject Key Identifier: 
                D9:DA:26:CD:4B:A3:68:77:A8:94:63:7C:7D:ED:95:59:E2:A0:08:87
            X509v3 Authority Key Identifier: 
                keyid:B1:2B:65:9B:17:E3:FB:CE:62:67:80:8E:EC:50:91:5C:9D:C4:91:4D
                DirName:/C=CA/ST=ON/L=Mississauga/O=vpnsvr/OU=vpnsvr/CN=vpnsvr CA/name=vpnsvr/emailAddress=zxning@gmail.com
                serial:FD:BC:9B:37:14:8C:02:DD

            X509v3 Extended Key Usage: 
                TLS Web Client Authentication
            X509v3 Key Usage: 
                Digital Signature
            X509v3 Subject Alternative Name: 
                DNS:vpn1
    Signature Algorithm: sha256WithRSAEncryption
         2d:7a:9d:ba:8e:9d:53:59:6d:f1:c6:04:94:49:4d:09:86:24:
         e0:02:be:79:db:8e:1a:15:53:c6:4c:f3:ea:48:b6:a9:af:8b:
         b9:93:20:55:71:72:f3:b3:48:75:2e:07:fb:ec:fe:59:f3:31:
         2f:96:19:41:d0:16:f7:d6:3f:d9:da:09:93:ff:33:d1:24:86:
         f4:fb:29:45:2b:55:f5:fa:fd:a9:77:59:18:33:b5:06:3d:33:
         96:3a:77:af:22:d2:12:8b:af:6a:ab:ef:fa:01:71:79:1c:64:
         80:ab:27:7f:09:1f:ac:61:da:d1:a6:f3:aa:a3:08:71:dc:a9:
         5f:a0:d3:c6:0b:7b:75:03:b4:c0:bb:49:d7:2b:2f:87:c9:64:
         14:df:29:2f:52:b9:54:7b:68:36:4d:3a:87:03:fa:c4:38:4e:
         cf:27:cd:2d:0e:98:d4:e7:37:32:3b:6b:3e:b4:51:72:f5:40:
         2d:1a:b9:ed:29:9d:63:29:9a:8f:64:db:55:04:15:9d:89:6b:
         7c:7b:97:25:82:c7:a0:a1:1a:c2:3a:5d:c4:fd:eb:44:77:15:
         24:c3:76:4c:ba:fa:26:17:36:76:fa:63:7c:d9:77:6f:9f:8b:
         eb:b8:a7:87:e4:8c:29:65:91:55:d6:d2:79:29:2b:fe:a0:87:
         22:d7:8b:e8
-----BEGIN CERTIFICATE-----
MIIFCjCCA/KgAwIBAgIBCDANBgkqhkiG9w0BAQsFADCBmDELMAkGA1UEBhMCQ0Ex
CzAJBgNVBAgTAk9OMRQwEgYDVQQHEwtNaXNzaXNzYXVnYTEPMA0GA1UEChMGdnBu
c3ZyMQ8wDQYDVQQLEwZ2cG5zdnIxEjAQBgNVBAMTCXZwbnN2ciBDQTEPMA0GA1UE
KRMGdnBuc3ZyMR8wHQYJKoZIhvcNAQkBFhB6eG5pbmdAZ21haWwuY29tMB4XDTE3
MDIyNDE3NDY1M1oXDTI3MDIyMjE3NDY1M1owgZMxCzAJBgNVBAYTAkNBMQswCQYD
VQQIEwJPTjEUMBIGA1UEBxMLTWlzc2lzc2F1Z2ExDzANBgNVBAoTBnZwbnN2cjEP
MA0GA1UECxMGdnBuc3ZyMQ0wCwYDVQQDEwR2cG4xMQ8wDQYDVQQpEwZ2cG5zdnIx
HzAdBgkqhkiG9w0BCQEWEHp4bmluZ0BnbWFpbC5jb20wggEiMA0GCSqGSIb3DQEB
AQUAA4IBDwAwggEKAoIBAQDNYrABA2Qg+GlfRSjnGNm82ouvWvgm8eCjDU7ysUn4
inydna+oN4TY7EY1yYLevCEqKN6qhstXiELm7qNvVQW+eRQikmsmqnttdWu51aXv
/AyXJQMT+dDAwNvZUgvbJKpcya3d1e+oRVZ19yjpoQIHC23VIBZyVCAc+hxUWSWp
xXfnbQaUNpc9ItYmScswjP16sj/Te3Vl+X91vI9JD8+w/Xm1o2MAzltw6qo/aS6o
v+Lk9OHrtfE17hlz7pJt3sxwCr7dpBzZmXVgzCXqtkT54zo3LXe4blbhaiFmwk/s
1B3B6dBJ42/11hzRL3SYDlpjjyPSZymOVJY9xLY7pTenAgMBAAGjggFgMIIBXDAJ
BgNVHRMEAjAAMC0GCWCGSAGG+EIBDQQgFh5FYXN5LVJTQSBHZW5lcmF0ZWQgQ2Vy
dGlmaWNhdGUwHQYDVR0OBBYEFNnaJs1Lo2h3qJRjfH3tlVnioAiHMIHNBgNVHSME
gcUwgcKAFLErZZsX4/vOYmeAjuxQkVydxJFNoYGepIGbMIGYMQswCQYDVQQGEwJD
QTELMAkGA1UECBMCT04xFDASBgNVBAcTC01pc3Npc3NhdWdhMQ8wDQYDVQQKEwZ2
cG5zdnIxDzANBgNVBAsTBnZwbnN2cjESMBAGA1UEAxMJdnBuc3ZyIENBMQ8wDQYD
VQQpEwZ2cG5zdnIxHzAdBgkqhkiG9w0BCQEWEHp4bmluZ0BnbWFpbC5jb22CCQD9
vJs3FIwC3TATBgNVHSUEDDAKBggrBgEFBQcDAjALBgNVHQ8EBAMCB4AwDwYDVR0R
BAgwBoIEdnBuMTANBgkqhkiG9w0BAQsFAAOCAQEALXqduo6dU1lt8cYElElNCYYk
4AK+eduOGhVTxkzz6ki2qa+LuZMgVXFy87NIdS4H++z+WfMxL5YZQdAW99Y/2doJ
k/8z0SSG9PspRStV9fr9qXdZGDO1Bj0zljp3ryLSEouvaqvv+gFxeRxkgKsnfwkf
rGHa0abzqqMIcdypX6DTxgt7dQO0wLtJ1ysvh8lkFN8pL1K5VHtoNk06hwP6xDhO
zyfNLQ6Y1Oc3MjtrPrRRcvVALRq57SmdYymaj2TbVQQVnYlrfHuXJYLHoKEawjpd
xP3rRHcVJMN2TLr6Jhc2dvpjfNl3b5+L67inh+SMKWWRVdbSeSkr/qCHIteL6A==
-----END CERTIFICATE-----
