Certificate:
    Data:
        Version: 3 (0x2)
        Serial Number: 9 (0x9)
    Signature Algorithm: sha256WithRSAEncryption
        Issuer: C=CA, ST=ON, L=Mississauga, O=vpnsvr, OU=vpnsvr, CN=vpnsvr CA/name=vpnsvr/emailAddress=zxning@gmail.com
        Validity
            Not Before: Feb 24 17:47:58 2017 GMT
            Not After : Feb 22 17:47:58 2027 GMT
        Subject: C=CA, ST=ON, L=Mississauga, O=vpnsvr, OU=vpnsvr, CN=vpn1/name=vpnsvr/emailAddress=zxning@gmail.com
        Subject Public Key Info:
            Public Key Algorithm: rsaEncryption
                Public-Key: (2048 bit)
                Modulus:
                    00:c3:cf:b3:e8:6c:2d:f0:53:fb:0e:97:a7:b6:3e:
                    7e:c8:24:e5:11:40:10:f2:64:ac:8b:d9:f6:04:19:
                    3b:ae:a9:d9:07:ca:1e:ec:d1:18:17:b0:5e:9c:36:
                    b1:b4:54:65:3c:43:cf:98:e9:15:03:cd:4a:42:b4:
                    09:0b:c8:fd:ac:d8:7e:89:15:f4:9a:90:ac:0e:bb:
                    b8:29:23:59:d6:43:50:58:4e:3a:3d:6d:bf:20:0d:
                    3f:49:cf:93:78:0f:39:5f:b8:5f:5c:d5:da:c8:41:
                    e4:f5:97:8b:95:e4:34:b5:d9:d4:74:2e:75:0b:95:
                    95:e2:4c:31:00:e0:03:0c:b3:43:f9:5f:da:6a:88:
                    dd:cd:0e:7f:b2:c8:26:19:48:8d:c2:de:c7:fd:d5:
                    fc:18:ee:f6:2e:44:e4:5f:cd:44:78:03:e8:13:cb:
                    ad:42:49:b2:ed:71:79:48:ff:5c:e0:58:e9:f2:b0:
                    bb:2f:3e:0c:40:9d:da:94:fa:97:79:36:b4:f9:47:
                    ae:6c:bb:b5:e2:17:26:39:62:17:c0:1d:82:f0:90:
                    43:10:69:12:40:46:ad:6f:32:86:09:c7:cf:25:b6:
                    54:03:0c:a7:99:9e:4f:d5:1e:ba:b1:01:03:fd:5b:
                    f2:8b:02:16:a5:cc:86:5c:e8:44:0d:f8:f4:8d:11:
                    2a:df
                Exponent: 65537 (0x10001)
        X509v3 extensions:
            X509v3 Basic Constraints: 
                CA:FALSE
            Netscape Comment: 
                Easy-RSA Generated Certificate
            X509v3 Subject Key Identifier: 
                29:E0:90:18:95:C8:45:DE:13:31:3A:5C:4F:8B:54:5B:24:99:2A:24
            X509v3 Authority Key Identifier: 
                keyid:B1:2B:65:9B:17:E3:FB:CE:62:67:80:8E:EC:50:91:5C:9D:C4:91:4D
                DirName:/C=CA/ST=ON/L=Mississauga/O=vpnsvr/OU=vpnsvr/CN=vpnsvr CA/name=vpnsvr/emailAddress=zxning@gmail.com
                serial:FD:BC:9B:37:14:8C:02:DD

            X509v3 Extended Key Usage: 
                TLS Web Client Authentication
            X509v3 Key Usage: 
                Digital Signature
            X509v3 Subject Alternative Name: 
                DNS:vpn1
    Signature Algorithm: sha256WithRSAEncryption
         aa:c4:d8:59:c1:27:a4:29:47:50:2f:7b:8c:73:a2:57:24:70:
         46:c3:06:66:f0:f0:f7:2d:7e:6a:a9:df:b5:a5:cc:43:d1:6c:
         7e:57:2e:77:16:c0:5b:4e:cb:5e:e0:02:de:e6:03:66:a6:57:
         81:69:17:68:98:56:c6:a8:9e:e3:ec:d3:63:5d:44:53:3b:9a:
         e6:13:d4:41:5f:85:63:ad:44:22:57:94:5b:cd:d5:e1:e2:be:
         6f:2b:9c:6f:c6:0d:36:e6:2a:6f:e2:6b:4d:c5:93:f3:fc:ce:
         da:25:a0:ed:d0:8c:b9:b7:64:16:51:26:95:a7:f8:68:b3:8f:
         1c:bc:19:0e:ae:e3:cf:0b:e7:51:2d:04:10:ad:f5:e7:41:30:
         7e:24:61:61:b4:4e:09:e6:48:f3:c7:c6:25:73:12:af:7d:a1:
         06:ba:ff:8d:7a:2f:30:db:ff:5d:41:4b:18:be:9f:56:95:0c:
         7b:01:ff:e6:a2:2a:09:6b:9d:14:94:f2:17:af:92:f5:a5:22:
         f1:6c:0b:4b:63:ce:f1:7e:a8:f4:03:a1:a2:ed:f0:91:ae:a4:
         c6:99:46:6a:62:94:0c:b3:b2:fc:00:18:df:ee:93:0b:9e:4d:
         53:5c:d4:31:fe:94:81:51:b4:f4:25:32:40:ca:73:a5:b2:b3:
         97:18:dc:7c
-----BEGIN CERTIFICATE-----
MIIFCjCCA/KgAwIBAgIBCTANBgkqhkiG9w0BAQsFADCBmDELMAkGA1UEBhMCQ0Ex
CzAJBgNVBAgTAk9OMRQwEgYDVQQHEwtNaXNzaXNzYXVnYTEPMA0GA1UEChMGdnBu
c3ZyMQ8wDQYDVQQLEwZ2cG5zdnIxEjAQBgNVBAMTCXZwbnN2ciBDQTEPMA0GA1UE
KRMGdnBuc3ZyMR8wHQYJKoZIhvcNAQkBFhB6eG5pbmdAZ21haWwuY29tMB4XDTE3
MDIyNDE3NDc1OFoXDTI3MDIyMjE3NDc1OFowgZMxCzAJBgNVBAYTAkNBMQswCQYD
VQQIEwJPTjEUMBIGA1UEBxMLTWlzc2lzc2F1Z2ExDzANBgNVBAoTBnZwbnN2cjEP
MA0GA1UECxMGdnBuc3ZyMQ0wCwYDVQQDEwR2cG4xMQ8wDQYDVQQpEwZ2cG5zdnIx
HzAdBgkqhkiG9w0BCQEWEHp4bmluZ0BnbWFpbC5jb20wggEiMA0GCSqGSIb3DQEB
AQUAA4IBDwAwggEKAoIBAQDDz7PobC3wU/sOl6e2Pn7IJOURQBDyZKyL2fYEGTuu
qdkHyh7s0RgXsF6cNrG0VGU8Q8+Y6RUDzUpCtAkLyP2s2H6JFfSakKwOu7gpI1nW
Q1BYTjo9bb8gDT9Jz5N4DzlfuF9c1drIQeT1l4uV5DS12dR0LnULlZXiTDEA4AMM
s0P5X9pqiN3NDn+yyCYZSI3C3sf91fwY7vYuRORfzUR4A+gTy61CSbLtcXlI/1zg
WOnysLsvPgxAndqU+pd5NrT5R65su7XiFyY5YhfAHYLwkEMQaRJARq1vMoYJx88l
tlQDDKeZnk/VHrqxAQP9W/KLAhalzIZc6EQN+PSNESrfAgMBAAGjggFgMIIBXDAJ
BgNVHRMEAjAAMC0GCWCGSAGG+EIBDQQgFh5FYXN5LVJTQSBHZW5lcmF0ZWQgQ2Vy
dGlmaWNhdGUwHQYDVR0OBBYEFCngkBiVyEXeEzE6XE+LVFskmSokMIHNBgNVHSME
gcUwgcKAFLErZZsX4/vOYmeAjuxQkVydxJFNoYGepIGbMIGYMQswCQYDVQQGEwJD
QTELMAkGA1UECBMCT04xFDASBgNVBAcTC01pc3Npc3NhdWdhMQ8wDQYDVQQKEwZ2
cG5zdnIxDzANBgNVBAsTBnZwbnN2cjESMBAGA1UEAxMJdnBuc3ZyIENBMQ8wDQYD
VQQpEwZ2cG5zdnIxHzAdBgkqhkiG9w0BCQEWEHp4bmluZ0BnbWFpbC5jb22CCQD9
vJs3FIwC3TATBgNVHSUEDDAKBggrBgEFBQcDAjALBgNVHQ8EBAMCB4AwDwYDVR0R
BAgwBoIEdnBuMTANBgkqhkiG9w0BAQsFAAOCAQEAqsTYWcEnpClHUC97jHOiVyRw
RsMGZvDw9y1+aqnftaXMQ9FsflcudxbAW07LXuAC3uYDZqZXgWkXaJhWxqie4+zT
Y11EUzua5hPUQV+FY61EIleUW83V4eK+byucb8YNNuYqb+JrTcWT8/zO2iWg7dCM
ubdkFlEmlaf4aLOPHLwZDq7jzwvnUS0EEK3150EwfiRhYbROCeZI88fGJXMSr32h
Brr/jXovMNv/XUFLGL6fVpUMewH/5qIqCWudFJTyF6+S9aUi8WwLS2PO8X6o9AOh
ou3wka6kxplGamKUDLOy/AAY3+6TC55NU1zUMf6UgVG09CUyQMpzpbKzlxjcfA==
-----END CERTIFICATE-----
