Certificate:
    Data:
        Version: 3 (0x2)
        Serial Number: 10 (0xa)
    Signature Algorithm: sha256WithRSAEncryption
        Issuer: C=CA, ST=ON, L=Mississauga, O=vpnsvr, OU=vpnsvr, CN=vpnsvr CA/name=vpnsvr/emailAddress=zxning@gmail.com
        Validity
            Not Before: Feb 24 17:52:45 2017 GMT
            Not After : Feb 22 17:52:45 2027 GMT
        Subject: C=CA, ST=ON, L=Mississauga, O=vpnsvr, OU=vpnsvr, CN=vpn2/name=vpnsvr/emailAddress=zxning@gmail.com
        Subject Public Key Info:
            Public Key Algorithm: rsaEncryption
                Public-Key: (2048 bit)
                Modulus:
                    00:a5:85:cb:ae:55:15:2d:b6:86:0b:27:b8:87:9d:
                    f7:88:59:75:57:13:34:5c:a9:eb:31:2a:48:72:26:
                    7a:8a:76:eb:a6:bd:30:ec:89:c9:b9:c4:66:8b:bd:
                    c6:8c:9f:bc:7e:7f:98:b7:7a:b6:57:8b:9b:7d:87:
                    08:88:76:1b:4a:0f:40:70:d9:53:e4:f5:a4:5c:e9:
                    6e:bd:09:f6:51:4d:5b:76:68:4b:c9:4b:0e:a3:77:
                    15:a1:bf:1d:f7:2b:bb:2a:39:03:4d:e4:5b:f3:4d:
                    d6:71:6f:18:b9:de:92:ce:22:8a:d1:1c:d9:a8:0e:
                    da:77:8f:cc:dc:df:df:1a:9e:9c:12:11:94:a7:b4:
                    5e:32:91:30:1a:72:d7:2d:f2:63:42:00:2d:5c:c3:
                    e5:5c:15:62:4b:5b:0a:16:bc:7e:3f:52:9a:37:33:
                    39:2d:1f:86:ea:b3:dd:40:66:9b:e1:ec:04:e1:78:
                    41:6e:a2:29:bd:aa:da:3d:7f:5f:e3:d5:ca:84:1d:
                    d6:1d:0c:4c:f4:4a:91:c4:d4:6f:8c:98:a8:07:97:
                    76:84:0f:75:f2:9b:11:aa:cb:0f:cb:15:d1:5f:80:
                    4e:5e:f6:f1:22:db:e6:21:d5:dd:a7:23:d9:83:e2:
                    c7:98:de:22:83:46:9f:da:2c:ea:f1:68:94:f3:01:
                    ae:f7
                Exponent: 65537 (0x10001)
        X509v3 extensions:
            X509v3 Basic Constraints: 
                CA:FALSE
            Netscape Comment: 
                Easy-RSA Generated Certificate
            X509v3 Subject Key Identifier: 
                EB:04:3D:39:90:45:DC:20:4F:0D:F4:5B:86:A7:0A:60:48:BE:0C:78
            X509v3 Authority Key Identifier: 
                keyid:B1:2B:65:9B:17:E3:FB:CE:62:67:80:8E:EC:50:91:5C:9D:C4:91:4D
                DirName:/C=CA/ST=ON/L=Mississauga/O=vpnsvr/OU=vpnsvr/CN=vpnsvr CA/name=vpnsvr/emailAddress=zxning@gmail.com
                serial:FD:BC:9B:37:14:8C:02:DD

            X509v3 Extended Key Usage: 
                TLS Web Client Authentication
            X509v3 Key Usage: 
                Digital Signature
            X509v3 Subject Alternative Name: 
                DNS:vpn2
    Signature Algorithm: sha256WithRSAEncryption
         1f:cd:60:f0:b4:02:a3:32:17:66:82:70:5a:8c:d3:ec:cb:2a:
         89:dd:e7:75:5c:99:e0:3a:c3:32:8a:2f:33:ff:45:3d:a0:4a:
         20:50:70:77:61:37:c6:11:5a:cf:6d:a8:de:9b:af:c4:26:e1:
         19:92:41:5b:57:36:3d:29:ea:f1:0e:6c:2b:80:87:a3:6c:c6:
         56:54:64:13:50:bb:07:ad:9f:bd:1c:22:94:11:07:0b:d2:7a:
         f9:67:4a:4b:72:ee:1a:1f:e3:aa:a3:c5:2d:7a:3d:7d:4e:bc:
         a5:a2:56:5f:aa:6d:08:d7:7c:c5:fc:dc:60:b8:40:68:ac:f8:
         36:f8:4b:35:ca:5c:fc:49:87:61:48:7b:97:9f:9a:b5:2e:32:
         d0:86:0c:47:76:60:6a:4d:f7:ac:cf:b1:42:61:8c:d0:c7:d3:
         76:5b:25:c4:45:32:33:3c:db:47:b7:f8:1a:23:9e:ee:47:fa:
         1a:e7:1a:a6:84:34:87:64:11:03:54:85:0f:c3:f3:b2:d7:80:
         ff:32:24:d4:d7:4d:30:19:3e:f9:98:61:6c:4d:1e:bb:85:b8:
         13:d9:69:f1:65:3c:ad:7d:67:cd:5c:0c:21:f7:04:0e:04:0a:
         a3:b4:98:fe:a4:cc:99:6b:6f:88:3b:f5:41:5e:6c:a6:65:47:
         d2:27:bb:38
-----BEGIN CERTIFICATE-----
MIIFCjCCA/KgAwIBAgIBCjANBgkqhkiG9w0BAQsFADCBmDELMAkGA1UEBhMCQ0Ex
CzAJBgNVBAgTAk9OMRQwEgYDVQQHEwtNaXNzaXNzYXVnYTEPMA0GA1UEChMGdnBu
c3ZyMQ8wDQYDVQQLEwZ2cG5zdnIxEjAQBgNVBAMTCXZwbnN2ciBDQTEPMA0GA1UE
KRMGdnBuc3ZyMR8wHQYJKoZIhvcNAQkBFhB6eG5pbmdAZ21haWwuY29tMB4XDTE3
MDIyNDE3NTI0NVoXDTI3MDIyMjE3NTI0NVowgZMxCzAJBgNVBAYTAkNBMQswCQYD
VQQIEwJPTjEUMBIGA1UEBxMLTWlzc2lzc2F1Z2ExDzANBgNVBAoTBnZwbnN2cjEP
MA0GA1UECxMGdnBuc3ZyMQ0wCwYDVQQDEwR2cG4yMQ8wDQYDVQQpEwZ2cG5zdnIx
HzAdBgkqhkiG9w0BCQEWEHp4bmluZ0BnbWFpbC5jb20wggEiMA0GCSqGSIb3DQEB
AQUAA4IBDwAwggEKAoIBAQClhcuuVRUttoYLJ7iHnfeIWXVXEzRcqesxKkhyJnqK
duumvTDsicm5xGaLvcaMn7x+f5i3erZXi5t9hwiIdhtKD0Bw2VPk9aRc6W69CfZR
TVt2aEvJSw6jdxWhvx33K7sqOQNN5FvzTdZxbxi53pLOIorRHNmoDtp3j8zc398a
npwSEZSntF4ykTAactct8mNCAC1cw+VcFWJLWwoWvH4/Upo3MzktH4bqs91AZpvh
7ATheEFuoim9qto9f1/j1cqEHdYdDEz0SpHE1G+MmKgHl3aED3XymxGqyw/LFdFf
gE5e9vEi2+Yh1d2nI9mD4seY3iKDRp/aLOrxaJTzAa73AgMBAAGjggFgMIIBXDAJ
BgNVHRMEAjAAMC0GCWCGSAGG+EIBDQQgFh5FYXN5LVJTQSBHZW5lcmF0ZWQgQ2Vy
dGlmaWNhdGUwHQYDVR0OBBYEFOsEPTmQRdwgTw30W4anCmBIvgx4MIHNBgNVHSME
gcUwgcKAFLErZZsX4/vOYmeAjuxQkVydxJFNoYGepIGbMIGYMQswCQYDVQQGEwJD
QTELMAkGA1UECBMCT04xFDASBgNVBAcTC01pc3Npc3NhdWdhMQ8wDQYDVQQKEwZ2
cG5zdnIxDzANBgNVBAsTBnZwbnN2cjESMBAGA1UEAxMJdnBuc3ZyIENBMQ8wDQYD
VQQpEwZ2cG5zdnIxHzAdBgkqhkiG9w0BCQEWEHp4bmluZ0BnbWFpbC5jb22CCQD9
vJs3FIwC3TATBgNVHSUEDDAKBggrBgEFBQcDAjALBgNVHQ8EBAMCB4AwDwYDVR0R
BAgwBoIEdnBuMjANBgkqhkiG9w0BAQsFAAOCAQEAH81g8LQCozIXZoJwWozT7Msq
id3ndVyZ4DrDMoovM/9FPaBKIFBwd2E3xhFaz22o3puvxCbhGZJBW1c2PSnq8Q5s
K4CHo2zGVlRkE1C7B62fvRwilBEHC9J6+WdKS3LuGh/jqqPFLXo9fU68paJWX6pt
CNd8xfzcYLhAaKz4NvhLNcpc/EmHYUh7l5+atS4y0IYMR3Zgak33rM+xQmGM0MfT
dlslxEUyMzzbR7f4GiOe7kf6GucapoQ0h2QRA1SFD8PzsteA/zIk1NdNMBk++Zhh
bE0eu4W4E9lp8WU8rX1nzVwMIfcEDgQKo7SY/qTMmWtviDv1QV5spmVH0ie7OA==
-----END CERTIFICATE-----
