Certificate:
    Data:
        Version: 3 (0x2)
        Serial Number: 11 (0xb)
    Signature Algorithm: sha256WithRSAEncryption
        Issuer: C=CA, ST=ON, L=Mississauga, O=vpnsvr, OU=vpnsvr, CN=vpnsvr CA/name=vpnsvr/emailAddress=zxning@gmail.com
        Validity
            Not Before: Feb 24 19:03:24 2017 GMT
            Not After : Feb 22 19:03:24 2027 GMT
        Subject: C=CA, ST=ON, L=Mississauga, O=vpnsvr, OU=vpnsvr, CN=vpn3/name=vpnsvr/emailAddress=zxning@gmail.com
        Subject Public Key Info:
            Public Key Algorithm: rsaEncryption
                Public-Key: (2048 bit)
                Modulus:
                    00:98:7d:ae:95:e7:c8:50:14:bb:0e:c2:0f:98:66:
                    12:26:61:11:df:61:e4:fd:e7:79:5c:4f:e3:f5:d3:
                    59:60:e3:c7:4f:16:cf:8c:99:61:f0:57:13:cd:2f:
                    00:c4:06:e3:b0:0c:56:e9:05:2a:d8:4d:c2:24:d5:
                    f5:cf:8b:b7:94:81:5c:29:8c:8e:10:3e:42:bc:ba:
                    ec:c8:4c:ed:89:94:4b:bf:af:88:3d:9e:33:28:f1:
                    eb:eb:31:36:1c:13:ca:a0:ef:bf:8b:2f:c9:26:c7:
                    d2:1d:b1:9d:af:84:31:78:3c:5a:b2:b7:06:d3:ba:
                    9c:97:a9:1b:f1:50:f6:20:32:c7:63:cf:1b:09:3b:
                    55:26:3c:0c:37:94:74:90:b5:8a:ce:f3:18:21:65:
                    4b:f7:fe:66:9c:7c:6e:e8:4f:ce:4c:fe:6a:24:ea:
                    c9:50:60:3d:4e:5e:01:76:e0:38:b4:47:ac:76:7d:
                    d0:3b:f2:3b:0b:59:60:f1:74:19:1c:e6:f4:dd:0e:
                    2c:d5:93:02:b9:c4:ed:61:9f:fb:b8:e8:56:4e:cb:
                    b1:06:52:0a:ca:eb:de:9f:49:59:cd:db:5d:35:9c:
                    b0:74:e5:52:b2:52:b8:52:cf:cb:0d:75:c0:22:38:
                    14:d3:8b:30:9d:df:a3:61:81:7b:67:4e:87:09:4b:
                    78:39
                Exponent: 65537 (0x10001)
        X509v3 extensions:
            X509v3 Basic Constraints: 
                CA:FALSE
            Netscape Comment: 
                Easy-RSA Generated Certificate
            X509v3 Subject Key Identifier: 
                9C:C6:A4:66:9B:4F:F2:3F:D6:15:C1:8D:83:67:1E:F0:98:E6:D0:D0
            X509v3 Authority Key Identifier: 
                keyid:B1:2B:65:9B:17:E3:FB:CE:62:67:80:8E:EC:50:91:5C:9D:C4:91:4D
                DirName:/C=CA/ST=ON/L=Mississauga/O=vpnsvr/OU=vpnsvr/CN=vpnsvr CA/name=vpnsvr/emailAddress=zxning@gmail.com
                serial:FD:BC:9B:37:14:8C:02:DD

            X509v3 Extended Key Usage: 
                TLS Web Client Authentication
            X509v3 Key Usage: 
                Digital Signature
            X509v3 Subject Alternative Name: 
                DNS:vpn3
    Signature Algorithm: sha256WithRSAEncryption
         08:b3:bf:66:43:42:45:04:77:34:ce:f7:46:6b:e5:65:1f:4e:
         fa:04:38:5e:5b:8c:d5:07:7d:4d:f8:e0:f4:59:25:db:2d:76:
         50:8a:12:1b:6e:77:03:a9:cc:75:ec:b8:d2:00:fd:5c:13:ee:
         6c:2b:9f:dd:bd:ce:84:41:84:eb:4e:aa:7a:56:d5:e3:df:26:
         46:26:de:5a:ca:81:00:70:3c:84:13:c8:43:9a:9c:e5:53:13:
         bc:f7:09:85:4a:b9:16:e0:e3:4d:7c:7f:85:96:73:28:1e:da:
         03:ea:bd:53:79:8f:7f:e8:8d:59:42:2c:8d:bd:90:e1:ed:cb:
         e4:ae:bf:30:f7:ce:31:94:c8:4d:d5:c1:dd:9d:1d:d5:9c:ff:
         cc:0c:ed:3f:29:21:25:30:f8:41:55:f2:da:e0:0d:96:a8:5e:
         33:bb:20:0d:19:0f:ae:fa:9d:79:4b:97:5a:80:f0:6a:78:bd:
         18:ee:f6:5e:77:15:80:04:9a:9d:5e:b7:40:35:19:9c:50:0f:
         ba:37:03:8e:37:c8:70:6d:a9:30:13:29:6a:47:d9:61:67:0b:
         64:bb:08:62:53:df:62:11:a8:73:60:31:a3:23:3b:0c:0b:32:
         c7:28:00:82:07:dd:ed:dc:3a:4f:35:1b:9f:38:95:c8:e9:47:
         d5:f1:82:b5
-----BEGIN CERTIFICATE-----
MIIFCjCCA/KgAwIBAgIBCzANBgkqhkiG9w0BAQsFADCBmDELMAkGA1UEBhMCQ0Ex
CzAJBgNVBAgTAk9OMRQwEgYDVQQHEwtNaXNzaXNzYXVnYTEPMA0GA1UEChMGdnBu
c3ZyMQ8wDQYDVQQLEwZ2cG5zdnIxEjAQBgNVBAMTCXZwbnN2ciBDQTEPMA0GA1UE
KRMGdnBuc3ZyMR8wHQYJKoZIhvcNAQkBFhB6eG5pbmdAZ21haWwuY29tMB4XDTE3
MDIyNDE5MDMyNFoXDTI3MDIyMjE5MDMyNFowgZMxCzAJBgNVBAYTAkNBMQswCQYD
VQQIEwJPTjEUMBIGA1UEBxMLTWlzc2lzc2F1Z2ExDzANBgNVBAoTBnZwbnN2cjEP
MA0GA1UECxMGdnBuc3ZyMQ0wCwYDVQQDEwR2cG4zMQ8wDQYDVQQpEwZ2cG5zdnIx
HzAdBgkqhkiG9w0BCQEWEHp4bmluZ0BnbWFpbC5jb20wggEiMA0GCSqGSIb3DQEB
AQUAA4IBDwAwggEKAoIBAQCYfa6V58hQFLsOwg+YZhImYRHfYeT953lcT+P101lg
48dPFs+MmWHwVxPNLwDEBuOwDFbpBSrYTcIk1fXPi7eUgVwpjI4QPkK8uuzITO2J
lEu/r4g9njMo8evrMTYcE8qg77+LL8kmx9IdsZ2vhDF4PFqytwbTupyXqRvxUPYg
MsdjzxsJO1UmPAw3lHSQtYrO8xghZUv3/macfG7oT85M/mok6slQYD1OXgF24Di0
R6x2fdA78jsLWWDxdBkc5vTdDizVkwK5xO1hn/u46FZOy7EGUgrK696fSVnN2101
nLB05VKyUrhSz8sNdcAiOBTTizCd36NhgXtnTocJS3g5AgMBAAGjggFgMIIBXDAJ
BgNVHRMEAjAAMC0GCWCGSAGG+EIBDQQgFh5FYXN5LVJTQSBHZW5lcmF0ZWQgQ2Vy
dGlmaWNhdGUwHQYDVR0OBBYEFJzGpGabT/I/1hXBjYNnHvCY5tDQMIHNBgNVHSME
gcUwgcKAFLErZZsX4/vOYmeAjuxQkVydxJFNoYGepIGbMIGYMQswCQYDVQQGEwJD
QTELMAkGA1UECBMCT04xFDASBgNVBAcTC01pc3Npc3NhdWdhMQ8wDQYDVQQKEwZ2
cG5zdnIxDzANBgNVBAsTBnZwbnN2cjESMBAGA1UEAxMJdnBuc3ZyIENBMQ8wDQYD
VQQpEwZ2cG5zdnIxHzAdBgkqhkiG9w0BCQEWEHp4bmluZ0BnbWFpbC5jb22CCQD9
vJs3FIwC3TATBgNVHSUEDDAKBggrBgEFBQcDAjALBgNVHQ8EBAMCB4AwDwYDVR0R
BAgwBoIEdnBuMzANBgkqhkiG9w0BAQsFAAOCAQEACLO/ZkNCRQR3NM73RmvlZR9O
+gQ4XluM1Qd9Tfjg9Fkl2y12UIoSG253A6nMdey40gD9XBPubCuf3b3OhEGE606q
elbV498mRibeWsqBAHA8hBPIQ5qc5VMTvPcJhUq5FuDjTXx/hZZzKB7aA+q9U3mP
f+iNWUIsjb2Q4e3L5K6/MPfOMZTITdXB3Z0d1Zz/zAztPykhJTD4QVXy2uANlqhe
M7sgDRkPrvqdeUuXWoDwani9GO72XncVgASanV63QDUZnFAPujcDjjfIcG2pMBMp
akfZYWcLZLsIYlPfYhGoc2AxoyM7DAsyxygAggfd7dw6TzUbnziVyOlH1fGCtQ==
-----END CERTIFICATE-----
