Certificate:
    Data:
        Version: 3 (0x2)
        Serial Number: 14 (0xe)
    Signature Algorithm: sha256WithRSAEncryption
        Issuer: C=CA, ST=ON, L=Mississauga, O=vpnsvr, OU=vpnsvr, CN=vpnsvr CA/name=vpnsvr/emailAddress=zxning@gmail.com
        Validity
            Not Before: Feb 24 20:25:56 2017 GMT
            Not After : Feb 22 20:25:56 2027 GMT
        Subject: C=CA, ST=ON, L=Mississauga, O=vpnsvr, OU=vpnsvr, CN=vpn6/name=vpnsvr/emailAddress=zxning@gmail.com
        Subject Public Key Info:
            Public Key Algorithm: rsaEncryption
                Public-Key: (2048 bit)
                Modulus:
                    00:c0:ec:0c:70:7b:5e:ba:55:4b:43:e4:66:c5:36:
                    cc:da:36:01:20:77:9e:22:e4:5d:4c:43:2f:49:7e:
                    b7:be:18:95:ad:db:2d:fe:7b:be:9b:a8:23:31:54:
                    d8:65:bf:da:5a:d9:c2:25:2c:cf:2d:71:b2:f9:3f:
                    5e:c9:df:41:42:c3:ae:0c:a5:4a:f2:46:55:50:c0:
                    58:9c:78:b5:c0:50:9d:d4:0c:0c:d3:e3:1b:2c:e8:
                    19:21:e2:4b:c8:e0:24:67:d5:04:64:d0:a8:be:6e:
                    b9:1c:49:3a:3e:d0:58:9e:40:b9:30:1f:33:e1:40:
                    c2:5e:3d:db:78:67:37:05:b1:7c:a0:94:f2:d3:f6:
                    58:a0:cb:fe:b4:9e:0c:a0:d4:68:8a:99:dc:7e:04:
                    e9:6f:c8:30:70:c6:a8:a3:2a:ed:06:6a:08:f0:42:
                    f3:e5:02:1f:04:1d:a6:50:ac:e2:d5:f8:9e:c1:e0:
                    ff:f2:2f:f8:88:1c:22:ba:60:bb:ec:3b:a3:9d:93:
                    8d:a8:b5:8c:15:4e:f9:a2:32:40:ff:d3:87:8e:51:
                    c7:36:7c:a4:3c:31:05:a8:16:39:cc:90:6e:a2:3c:
                    da:6e:9e:00:74:70:b7:6b:ca:ee:d0:36:8a:e1:12:
                    cd:46:52:42:5e:a1:61:93:02:3b:6b:f8:af:2d:8c:
                    96:5b
                Exponent: 65537 (0x10001)
        X509v3 extensions:
            X509v3 Basic Constraints: 
                CA:FALSE
            Netscape Comment: 
                Easy-RSA Generated Certificate
            X509v3 Subject Key Identifier: 
                D1:DC:73:1E:39:42:CB:D6:3B:67:7D:6B:64:43:54:08:6E:EF:A3:4D
            X509v3 Authority Key Identifier: 
                keyid:B1:2B:65:9B:17:E3:FB:CE:62:67:80:8E:EC:50:91:5C:9D:C4:91:4D
                DirName:/C=CA/ST=ON/L=Mississauga/O=vpnsvr/OU=vpnsvr/CN=vpnsvr CA/name=vpnsvr/emailAddress=zxning@gmail.com
                serial:FD:BC:9B:37:14:8C:02:DD

            X509v3 Extended Key Usage: 
                TLS Web Client Authentication
            X509v3 Key Usage: 
                Digital Signature
            X509v3 Subject Alternative Name: 
                DNS:vpn6
    Signature Algorithm: sha256WithRSAEncryption
         5a:33:87:b9:5b:6d:39:80:af:b0:bb:bf:75:bd:6d:a9:7a:8f:
         32:14:39:88:60:48:98:58:ea:e0:d2:22:f9:c2:d5:12:03:1a:
         10:dd:3c:8d:86:45:b5:ce:02:a8:8d:99:ef:9b:c1:58:09:5b:
         73:4c:63:e7:ca:93:36:d9:87:c6:73:46:fa:61:92:77:1c:f9:
         72:35:a9:f6:56:6f:12:7d:b9:22:09:53:7d:7f:98:f2:21:35:
         84:37:38:7f:c4:9f:75:93:15:a7:aa:19:ea:90:a1:15:55:70:
         db:53:f6:2f:6e:6e:49:a2:f2:14:88:ce:b1:ee:b5:62:3c:ac:
         ae:6d:a2:dc:95:92:c7:7d:a1:a5:be:2e:ee:ac:20:19:87:68:
         94:c9:74:94:32:bd:56:43:86:48:d8:82:52:cd:cb:ea:62:97:
         f8:0c:1f:d5:20:ce:df:68:c3:22:62:4b:86:8c:14:ab:49:ad:
         09:47:46:5f:f8:ac:bc:ae:c2:b2:c1:2d:5f:99:7e:32:9a:8d:
         cf:de:44:48:d9:ed:70:59:72:e5:bf:58:dd:8f:4e:04:4f:4e:
         1d:48:ca:37:ff:fe:dd:9e:96:71:5c:25:71:99:64:63:71:08:
         fc:33:c7:bf:c4:85:68:41:3f:43:59:04:26:b7:0b:6f:24:5f:
         d8:94:b6:31
-----BEGIN CERTIFICATE-----
MIIFCjCCA/KgAwIBAgIBDjANBgkqhkiG9w0BAQsFADCBmDELMAkGA1UEBhMCQ0Ex
CzAJBgNVBAgTAk9OMRQwEgYDVQQHEwtNaXNzaXNzYXVnYTEPMA0GA1UEChMGdnBu
c3ZyMQ8wDQYDVQQLEwZ2cG5zdnIxEjAQBgNVBAMTCXZwbnN2ciBDQTEPMA0GA1UE
KRMGdnBuc3ZyMR8wHQYJKoZIhvcNAQkBFhB6eG5pbmdAZ21haWwuY29tMB4XDTE3
MDIyNDIwMjU1NloXDTI3MDIyMjIwMjU1NlowgZMxCzAJBgNVBAYTAkNBMQswCQYD
VQQIEwJPTjEUMBIGA1UEBxMLTWlzc2lzc2F1Z2ExDzANBgNVBAoTBnZwbnN2cjEP
MA0GA1UECxMGdnBuc3ZyMQ0wCwYDVQQDEwR2cG42MQ8wDQYDVQQpEwZ2cG5zdnIx
HzAdBgkqhkiG9w0BCQEWEHp4bmluZ0BnbWFpbC5jb20wggEiMA0GCSqGSIb3DQEB
AQUAA4IBDwAwggEKAoIBAQDA7Axwe166VUtD5GbFNszaNgEgd54i5F1MQy9Jfre+
GJWt2y3+e76bqCMxVNhlv9pa2cIlLM8tcbL5P17J30FCw64MpUryRlVQwFiceLXA
UJ3UDAzT4xss6Bkh4kvI4CRn1QRk0Ki+brkcSTo+0FieQLkwHzPhQMJePdt4ZzcF
sXyglPLT9ligy/60ngyg1GiKmdx+BOlvyDBwxqijKu0GagjwQvPlAh8EHaZQrOLV
+J7B4P/yL/iIHCK6YLvsO6Odk42otYwVTvmiMkD/04eOUcc2fKQ8MQWoFjnMkG6i
PNpungB0cLdryu7QNorhEs1GUkJeoWGTAjtr+K8tjJZbAgMBAAGjggFgMIIBXDAJ
BgNVHRMEAjAAMC0GCWCGSAGG+EIBDQQgFh5FYXN5LVJTQSBHZW5lcmF0ZWQgQ2Vy
dGlmaWNhdGUwHQYDVR0OBBYEFNHccx45QsvWO2d9a2RDVAhu76NNMIHNBgNVHSME
gcUwgcKAFLErZZsX4/vOYmeAjuxQkVydxJFNoYGepIGbMIGYMQswCQYDVQQGEwJD
QTELMAkGA1UECBMCT04xFDASBgNVBAcTC01pc3Npc3NhdWdhMQ8wDQYDVQQKEwZ2
cG5zdnIxDzANBgNVBAsTBnZwbnN2cjESMBAGA1UEAxMJdnBuc3ZyIENBMQ8wDQYD
VQQpEwZ2cG5zdnIxHzAdBgkqhkiG9w0BCQEWEHp4bmluZ0BnbWFpbC5jb22CCQD9
vJs3FIwC3TATBgNVHSUEDDAKBggrBgEFBQcDAjALBgNVHQ8EBAMCB4AwDwYDVR0R
BAgwBoIEdnBuNjANBgkqhkiG9w0BAQsFAAOCAQEAWjOHuVttOYCvsLu/db1tqXqP
MhQ5iGBImFjq4NIi+cLVEgMaEN08jYZFtc4CqI2Z75vBWAlbc0xj58qTNtmHxnNG
+mGSdxz5cjWp9lZvEn25IglTfX+Y8iE1hDc4f8SfdZMVp6oZ6pChFVVw21P2L25u
SaLyFIjOse61Yjysrm2i3JWSx32hpb4u7qwgGYdolMl0lDK9VkOGSNiCUs3L6mKX
+Awf1SDO32jDImJLhowUq0mtCUdGX/isvK7CssEtX5l+MpqNz95ESNntcFly5b9Y
3Y9OBE9OHUjKN//+3Z6WcVwlcZlkY3EI/DPHv8SFaEE/Q1kEJrcLbyRf2JS2MQ==
-----END CERTIFICATE-----
