Certificate:
    Data:
        Version: 3 (0x2)
        Serial Number: 12 (0xc)
    Signature Algorithm: sha256WithRSAEncryption
        Issuer: C=CA, ST=ON, L=Mississauga, O=vpnsvr, OU=vpnsvr, CN=vpnsvr CA/name=vpnsvr/emailAddress=zxning@gmail.com
        Validity
            Not Before: Feb 24 19:03:26 2017 GMT
            Not After : Feb 22 19:03:26 2027 GMT
        Subject: C=CA, ST=ON, L=Mississauga, O=vpnsvr, OU=vpnsvr, CN=vpn4/name=vpnsvr/emailAddress=zxning@gmail.com
        Subject Public Key Info:
            Public Key Algorithm: rsaEncryption
                Public-Key: (2048 bit)
                Modulus:
                    00:c2:3d:50:46:1c:51:ab:ec:3e:3a:a9:1d:6f:84:
                    9d:00:00:4e:ce:5d:10:da:3b:35:86:0d:b5:fe:3e:
                    16:9e:16:87:50:8b:c1:5c:24:28:61:0b:32:aa:c4:
                    a5:29:5a:ea:a1:54:fb:65:f1:e7:44:f6:6c:69:f6:
                    48:be:56:a9:b1:ca:44:89:4f:66:a2:c2:d0:ee:ea:
                    1b:e3:15:ff:b2:8e:4d:23:e0:d0:51:44:d1:2b:96:
                    e2:35:4a:72:8a:97:9d:45:19:a0:24:f6:fa:26:f3:
                    24:ca:38:92:87:16:18:f8:de:68:09:0b:2e:6b:43:
                    c7:3c:b1:38:1e:e4:a4:b4:8b:b7:f5:ec:f2:ab:fd:
                    38:38:1a:c7:dc:db:5f:94:28:6b:25:b3:af:d1:bf:
                    f9:b9:d5:dc:18:bd:80:2d:1b:df:9b:ca:de:bd:87:
                    9d:b1:7a:1e:5a:27:00:e6:2a:45:ab:16:80:3c:65:
                    95:08:33:45:1b:c7:d6:0a:18:18:31:ed:67:37:5a:
                    ad:5f:26:bf:c8:b6:9b:46:20:d5:ea:34:c5:0e:e3:
                    33:44:b1:e6:d0:e6:16:c4:dd:c5:ff:6e:ab:37:c2:
                    ec:7e:68:b2:78:3a:ca:d5:17:28:08:24:8f:07:ae:
                    2d:37:77:77:4b:aa:d3:a7:ea:50:9e:7b:07:4c:0f:
                    14:47
                Exponent: 65537 (0x10001)
        X509v3 extensions:
            X509v3 Basic Constraints: 
                CA:FALSE
            Netscape Comment: 
                Easy-RSA Generated Certificate
            X509v3 Subject Key Identifier: 
                84:02:EA:30:6F:9E:E5:E3:D0:6F:85:B3:11:1F:BE:0A:EF:7A:FF:4F
            X509v3 Authority Key Identifier: 
                keyid:B1:2B:65:9B:17:E3:FB:CE:62:67:80:8E:EC:50:91:5C:9D:C4:91:4D
                DirName:/C=CA/ST=ON/L=Mississauga/O=vpnsvr/OU=vpnsvr/CN=vpnsvr CA/name=vpnsvr/emailAddress=zxning@gmail.com
                serial:FD:BC:9B:37:14:8C:02:DD

            X509v3 Extended Key Usage: 
                TLS Web Client Authentication
            X509v3 Key Usage: 
                Digital Signature
            X509v3 Subject Alternative Name: 
                DNS:vpn4
    Signature Algorithm: sha256WithRSAEncryption
         06:1f:cf:69:87:77:0a:6e:77:fe:26:15:46:fd:aa:d5:2f:29:
         2e:47:ab:65:eb:d2:28:c1:47:b3:a1:a8:5e:e7:e5:41:7a:20:
         87:2c:0f:a4:55:61:32:67:d6:02:d8:5f:d9:50:9c:e1:7b:b9:
         69:e2:07:90:e9:e6:0a:22:88:23:91:19:e5:bb:1e:e4:b5:d3:
         14:fe:d2:10:1b:cb:2c:0c:ae:0c:ae:2a:39:0f:9c:6f:4d:e7:
         02:fc:b7:83:86:d0:e7:f8:97:42:59:6b:79:29:cb:0a:63:8d:
         de:65:b0:e5:5b:67:22:e5:b0:7f:33:03:77:ad:e7:97:91:b5:
         54:70:12:fb:ca:62:3e:ad:ee:15:16:08:89:02:3b:f0:0a:b7:
         52:60:6a:e7:2a:5d:19:b4:3a:6c:01:83:c2:db:96:bd:dd:92:
         3d:58:49:ec:2d:7f:36:33:61:5e:8c:35:64:36:02:a6:22:71:
         a1:00:a7:0c:f5:3b:da:b6:ac:ef:09:53:be:71:cc:d5:ae:32:
         d0:5a:70:2f:00:1a:9c:38:e1:54:6d:3d:6b:f0:f5:98:56:d3:
         a5:87:28:9c:75:82:da:9b:9b:54:11:62:b6:78:ae:80:60:b0:
         4a:bc:9e:b0:7a:91:c1:d6:9a:6a:02:01:76:e1:f2:63:b9:1e:
         34:d7:46:6e
-----BEGIN CERTIFICATE-----
MIIFCjCCA/KgAwIBAgIBDDANBgkqhkiG9w0BAQsFADCBmDELMAkGA1UEBhMCQ0Ex
CzAJBgNVBAgTAk9OMRQwEgYDVQQHEwtNaXNzaXNzYXVnYTEPMA0GA1UEChMGdnBu
c3ZyMQ8wDQYDVQQLEwZ2cG5zdnIxEjAQBgNVBAMTCXZwbnN2ciBDQTEPMA0GA1UE
KRMGdnBuc3ZyMR8wHQYJKoZIhvcNAQkBFhB6eG5pbmdAZ21haWwuY29tMB4XDTE3
MDIyNDE5MDMyNloXDTI3MDIyMjE5MDMyNlowgZMxCzAJBgNVBAYTAkNBMQswCQYD
VQQIEwJPTjEUMBIGA1UEBxMLTWlzc2lzc2F1Z2ExDzANBgNVBAoTBnZwbnN2cjEP
MA0GA1UECxMGdnBuc3ZyMQ0wCwYDVQQDEwR2cG40MQ8wDQYDVQQpEwZ2cG5zdnIx
HzAdBgkqhkiG9w0BCQEWEHp4bmluZ0BnbWFpbC5jb20wggEiMA0GCSqGSIb3DQEB
AQUAA4IBDwAwggEKAoIBAQDCPVBGHFGr7D46qR1vhJ0AAE7OXRDaOzWGDbX+Phae
FodQi8FcJChhCzKqxKUpWuqhVPtl8edE9mxp9ki+VqmxykSJT2aiwtDu6hvjFf+y
jk0j4NBRRNErluI1SnKKl51FGaAk9vom8yTKOJKHFhj43mgJCy5rQ8c8sTge5KS0
i7f17PKr/Tg4Gsfc21+UKGsls6/Rv/m51dwYvYAtG9+byt69h52xeh5aJwDmKkWr
FoA8ZZUIM0Ubx9YKGBgx7Wc3Wq1fJr/ItptGINXqNMUO4zNEsebQ5hbE3cX/bqs3
wux+aLJ4OsrVFygIJI8Hri03d3dLqtOn6lCeewdMDxRHAgMBAAGjggFgMIIBXDAJ
BgNVHRMEAjAAMC0GCWCGSAGG+EIBDQQgFh5FYXN5LVJTQSBHZW5lcmF0ZWQgQ2Vy
dGlmaWNhdGUwHQYDVR0OBBYEFIQC6jBvnuXj0G+FsxEfvgrvev9PMIHNBgNVHSME
gcUwgcKAFLErZZsX4/vOYmeAjuxQkVydxJFNoYGepIGbMIGYMQswCQYDVQQGEwJD
QTELMAkGA1UECBMCT04xFDASBgNVBAcTC01pc3Npc3NhdWdhMQ8wDQYDVQQKEwZ2
cG5zdnIxDzANBgNVBAsTBnZwbnN2cjESMBAGA1UEAxMJdnBuc3ZyIENBMQ8wDQYD
VQQpEwZ2cG5zdnIxHzAdBgkqhkiG9w0BCQEWEHp4bmluZ0BnbWFpbC5jb22CCQD9
vJs3FIwC3TATBgNVHSUEDDAKBggrBgEFBQcDAjALBgNVHQ8EBAMCB4AwDwYDVR0R
BAgwBoIEdnBuNDANBgkqhkiG9w0BAQsFAAOCAQEABh/PaYd3Cm53/iYVRv2q1S8p
LkerZevSKMFHs6GoXuflQXoghywPpFVhMmfWAthf2VCc4Xu5aeIHkOnmCiKII5EZ
5bse5LXTFP7SEBvLLAyuDK4qOQ+cb03nAvy3g4bQ5/iXQllreSnLCmON3mWw5Vtn
IuWwfzMDd63nl5G1VHAS+8piPq3uFRYIiQI78Aq3UmBq5ypdGbQ6bAGDwtuWvd2S
PVhJ7C1/NjNhXow1ZDYCpiJxoQCnDPU72ras7wlTvnHM1a4y0FpwLwAanDjhVG09
a/D1mFbTpYconHWC2pubVBFitniugGCwSryesHqRwdaaagIBduHyY7keNNdGbg==
-----END CERTIFICATE-----
