Certificate:
    Data:
        Version: 3 (0x2)
        Serial Number: 13 (0xd)
    Signature Algorithm: sha256WithRSAEncryption
        Issuer: C=CA, ST=ON, L=Mississauga, O=vpnsvr, OU=vpnsvr, CN=vpnsvr CA/name=vpnsvr/emailAddress=zxning@gmail.com
        Validity
            Not Before: Feb 24 20:25:53 2017 GMT
            Not After : Feb 22 20:25:53 2027 GMT
        Subject: C=CA, ST=ON, L=Mississauga, O=vpnsvr, OU=vpnsvr, CN=vpn5/name=vpnsvr/emailAddress=zxning@gmail.com
        Subject Public Key Info:
            Public Key Algorithm: rsaEncryption
                Public-Key: (2048 bit)
                Modulus:
                    00:be:df:d0:a6:ca:f4:ef:40:73:95:d7:ce:7e:8e:
                    98:e4:e9:91:d2:56:d1:aa:93:c3:d1:11:35:36:0c:
                    b7:43:ba:35:04:c0:2f:a5:58:8f:d2:83:fc:b2:07:
                    69:c0:a6:a2:ba:e3:89:22:18:53:bc:67:4a:8b:75:
                    31:b9:a5:a9:3f:97:9c:30:49:6c:41:86:85:ef:f6:
                    0c:93:80:2a:ad:c9:61:52:06:5b:28:4e:db:b3:9d:
                    99:84:ba:83:4d:ef:85:02:d6:23:b9:07:50:84:eb:
                    6a:dd:ca:71:3b:eb:22:01:2a:22:5c:fa:24:1e:88:
                    85:a9:72:fe:b1:18:6a:f3:71:96:ba:46:40:47:96:
                    3c:f7:17:7e:ec:a9:a6:50:99:35:8e:0c:3f:c0:49:
                    f2:2e:75:2d:62:35:86:63:9a:8e:52:bb:23:9f:9b:
                    46:ee:fd:cc:c2:a5:73:25:bf:3d:7c:da:70:01:3b:
                    cf:69:b8:32:53:c7:34:eb:20:63:44:2f:39:7b:9b:
                    94:78:ce:59:e7:da:f2:13:0e:df:93:00:78:ca:bf:
                    a1:b5:f0:b3:1f:a2:13:23:3f:4d:49:1b:ae:57:ff:
                    55:b2:f9:3e:e3:a1:77:a9:59:f9:bc:a8:8f:87:dd:
                    05:dd:7f:6d:22:c1:2f:d1:3d:65:d4:2e:96:9d:cd:
                    e6:21
                Exponent: 65537 (0x10001)
        X509v3 extensions:
            X509v3 Basic Constraints: 
                CA:FALSE
            Netscape Comment: 
                Easy-RSA Generated Certificate
            X509v3 Subject Key Identifier: 
                87:DC:5F:49:5F:98:EA:F2:3E:56:B7:BE:03:70:0A:66:DE:43:FD:E5
            X509v3 Authority Key Identifier: 
                keyid:B1:2B:65:9B:17:E3:FB:CE:62:67:80:8E:EC:50:91:5C:9D:C4:91:4D
                DirName:/C=CA/ST=ON/L=Mississauga/O=vpnsvr/OU=vpnsvr/CN=vpnsvr CA/name=vpnsvr/emailAddress=zxning@gmail.com
                serial:FD:BC:9B:37:14:8C:02:DD

            X509v3 Extended Key Usage: 
                TLS Web Client Authentication
            X509v3 Key Usage: 
                Digital Signature
            X509v3 Subject Alternative Name: 
                DNS:vpn5
    Signature Algorithm: sha256WithRSAEncryption
         03:01:55:42:00:ce:c3:ae:2f:e9:1f:70:89:d6:18:c8:ea:0e:
         ad:ff:6d:99:14:e7:7f:fe:81:16:6c:69:cd:8b:52:09:b0:ef:
         39:23:98:b2:76:24:98:fc:42:75:4f:ba:bd:2e:e5:36:2d:37:
         00:2a:af:c4:38:5f:a3:3c:e7:bf:14:ca:46:b2:9c:8c:6d:34:
         28:0c:e3:ab:23:da:83:54:79:92:fb:94:c7:fe:2b:b8:19:91:
         9b:70:c6:43:07:b5:a1:2f:3f:5c:e4:62:3e:6c:10:41:f2:fc:
         22:9b:5e:cc:b2:df:b9:44:a7:97:7d:83:c8:11:aa:b2:20:81:
         e3:35:c9:2e:00:7b:de:90:51:79:ed:ce:02:65:d0:3e:a1:55:
         e6:5c:74:c3:f4:28:bb:25:92:5b:d4:d7:7d:9e:ae:97:29:6f:
         bc:30:5e:d4:80:5d:e8:af:50:7e:cc:20:bf:28:6a:59:d2:53:
         b4:58:33:0b:cf:ae:fc:4d:84:1e:b4:40:98:42:7c:e0:19:04:
         9e:1e:c9:2b:0e:b0:fd:30:5d:9c:13:79:68:4f:e2:72:79:ae:
         08:73:83:3c:f7:37:6b:c4:1b:a8:d4:59:51:15:7a:4c:95:bb:
         e7:40:e1:f3:28:3b:78:5b:86:57:15:37:0e:cd:74:af:c0:6e:
         a5:80:55:10
-----BEGIN CERTIFICATE-----
MIIFCjCCA/KgAwIBAgIBDTANBgkqhkiG9w0BAQsFADCBmDELMAkGA1UEBhMCQ0Ex
CzAJBgNVBAgTAk9OMRQwEgYDVQQHEwtNaXNzaXNzYXVnYTEPMA0GA1UEChMGdnBu
c3ZyMQ8wDQYDVQQLEwZ2cG5zdnIxEjAQBgNVBAMTCXZwbnN2ciBDQTEPMA0GA1UE
KRMGdnBuc3ZyMR8wHQYJKoZIhvcNAQkBFhB6eG5pbmdAZ21haWwuY29tMB4XDTE3
MDIyNDIwMjU1M1oXDTI3MDIyMjIwMjU1M1owgZMxCzAJBgNVBAYTAkNBMQswCQYD
VQQIEwJPTjEUMBIGA1UEBxMLTWlzc2lzc2F1Z2ExDzANBgNVBAoTBnZwbnN2cjEP
MA0GA1UECxMGdnBuc3ZyMQ0wCwYDVQQDEwR2cG41MQ8wDQYDVQQpEwZ2cG5zdnIx
HzAdBgkqhkiG9w0BCQEWEHp4bmluZ0BnbWFpbC5jb20wggEiMA0GCSqGSIb3DQEB
AQUAA4IBDwAwggEKAoIBAQC+39CmyvTvQHOV185+jpjk6ZHSVtGqk8PRETU2DLdD
ujUEwC+lWI/Sg/yyB2nApqK644kiGFO8Z0qLdTG5pak/l5wwSWxBhoXv9gyTgCqt
yWFSBlsoTtuznZmEuoNN74UC1iO5B1CE62rdynE76yIBKiJc+iQeiIWpcv6xGGrz
cZa6RkBHljz3F37sqaZQmTWODD/ASfIudS1iNYZjmo5SuyOfm0bu/czCpXMlvz18
2nABO89puDJTxzTrIGNELzl7m5R4zlnn2vITDt+TAHjKv6G18LMfohMjP01JG65X
/1Wy+T7joXepWfm8qI+H3QXdf20iwS/RPWXULpadzeYhAgMBAAGjggFgMIIBXDAJ
BgNVHRMEAjAAMC0GCWCGSAGG+EIBDQQgFh5FYXN5LVJTQSBHZW5lcmF0ZWQgQ2Vy
dGlmaWNhdGUwHQYDVR0OBBYEFIfcX0lfmOryPla3vgNwCmbeQ/3lMIHNBgNVHSME
gcUwgcKAFLErZZsX4/vOYmeAjuxQkVydxJFNoYGepIGbMIGYMQswCQYDVQQGEwJD
QTELMAkGA1UECBMCT04xFDASBgNVBAcTC01pc3Npc3NhdWdhMQ8wDQYDVQQKEwZ2
cG5zdnIxDzANBgNVBAsTBnZwbnN2cjESMBAGA1UEAxMJdnBuc3ZyIENBMQ8wDQYD
VQQpEwZ2cG5zdnIxHzAdBgkqhkiG9w0BCQEWEHp4bmluZ0BnbWFpbC5jb22CCQD9
vJs3FIwC3TATBgNVHSUEDDAKBggrBgEFBQcDAjALBgNVHQ8EBAMCB4AwDwYDVR0R
BAgwBoIEdnBuNTANBgkqhkiG9w0BAQsFAAOCAQEAAwFVQgDOw64v6R9widYYyOoO
rf9tmRTnf/6BFmxpzYtSCbDvOSOYsnYkmPxCdU+6vS7lNi03ACqvxDhfozznvxTK
RrKcjG00KAzjqyPag1R5kvuUx/4ruBmRm3DGQwe1oS8/XORiPmwQQfL8IptezLLf
uUSnl32DyBGqsiCB4zXJLgB73pBRee3OAmXQPqFV5lx0w/QouyWSW9TXfZ6ulylv
vDBe1IBd6K9QfswgvyhqWdJTtFgzC8+u/E2EHrRAmEJ84BkEnh7JKw6w/TBdnBN5
aE/icnmuCHODPPc3a8QbqNRZURV6TJW750Dh8yg7eFuGVxU3Ds10r8BupYBVEA==
-----END CERTIFICATE-----
